---
triple:          'x86_64-apple-darwin'
binary-path:     '/Users/ochoagram/Documents/tec/c++/output/figura_clase'
relocations:
  - { offsetInCU: 0x2E00, offset: 0x2E00, size: 0x8, addend: 0x0, symName: __ZNSt3__124__put_character_sequenceB7v160006IcNS_11char_traitsIcEEEERNS_13basic_ostreamIT_T0_EES7_PKS4_m, symObjAddr: 0x1B50, symBinAddr: 0x100002EE0, symSize: 0x1F0 }
  - { offsetInCU: 0x4737, offset: 0x4737, size: 0x8, addend: 0x0, symName: __ZNSt3__1lsB7v160006INS_11char_traitsIcEEEERNS_13basic_ostreamIcT_EES6_PKc, symObjAddr: 0x280, symBinAddr: 0x100001610, symSize: 0x40 }
  - { offsetInCU: 0x477D, offset: 0x477D, size: 0x8, addend: 0x0, symName: __ZNSt3__14endlB7v160006IcNS_11char_traitsIcEEEERNS_13basic_ostreamIT_T0_EES7_, symObjAddr: 0x2E0, symBinAddr: 0x100001670, symSize: 0x50 }
  - { offsetInCU: 0x47BD, offset: 0x47BD, size: 0x8, addend: 0x0, symName: __ZNSt3__1lsB7v160006IcNS_11char_traitsIcEENS_9allocatorIcEEEERNS_13basic_ostreamIT_T0_EES9_RKNS_12basic_stringIS6_S7_T1_EE, symObjAddr: 0x330, symBinAddr: 0x1000016C0, symSize: 0x50 }
  - { offsetInCU: 0x4815, offset: 0x4815, size: 0x8, addend: 0x0, symName: __ZNSt3__119__debug_db_insert_cB7v160006INS_12basic_stringIcNS_11char_traitsIcEENS_9allocatorIcEEEEEEvPT_, symObjAddr: 0x1570, symBinAddr: 0x100002900, symSize: 0x10 }
  - { offsetInCU: 0x4846, offset: 0x4846, size: 0x8, addend: 0x0, symName: __ZNSt3__130__libcpp_is_constant_evaluatedB7v160006Ev, symObjAddr: 0x16F0, symBinAddr: 0x100002A80, symSize: 0x10 }
  - { offsetInCU: 0x4863, offset: 0x4863, size: 0x8, addend: 0x0, symName: __ZNSt3__117__libcpp_allocateB7v160006Emm, symObjAddr: 0x19D0, symBinAddr: 0x100002D60, symSize: 0x20 }
  - { offsetInCU: 0x48A0, offset: 0x48A0, size: 0x8, addend: 0x0, symName: __ZNSt3__121__libcpp_operator_newB7v160006IJmEEEPvDpT_, symObjAddr: 0x1A10, symBinAddr: 0x100002DA0, symSize: 0x20 }
  - { offsetInCU: 0x48D9, offset: 0x48D9, size: 0x8, addend: 0x0, symName: __ZNSt3__19use_facetB7v160006INS_5ctypeIcEEEERKT_RKNS_6localeE, symObjAddr: 0x1AF0, symBinAddr: 0x100002E80, symSize: 0x30 }
  - { offsetInCU: 0x4DA8, offset: 0x4DA8, size: 0x8, addend: 0x0, symName: __ZNSt3__116__pad_and_outputB7v160006IcNS_11char_traitsIcEEEENS_19ostreambuf_iteratorIT_T0_EES6_PKS4_S8_S8_RNS_8ios_baseES4_, symObjAddr: 0x1DA0, symBinAddr: 0x100003130, symSize: 0x220 }
  - { offsetInCU: 0x4E78, offset: 0x4E78, size: 0x8, addend: 0x0, symName: __ZNSt3__112__to_addressB7v160006IKcEEPT_S3_, symObjAddr: 0x2200, symBinAddr: 0x100003590, symSize: 0x10 }
  - { offsetInCU: 0x4EE0, offset: 0x4EE0, size: 0x8, addend: 0x0, symName: __ZNSt3__118__constexpr_strlenB7v160006EPKc, symObjAddr: 0x2450, symBinAddr: 0x1000037E0, symSize: 0x20 }
  - { offsetInCU: 0x4F0D, offset: 0x4F0D, size: 0x8, addend: 0x0, symName: __ZSt28__throw_bad_array_new_lengthB7v160006v, symObjAddr: 0x1990, symBinAddr: 0x100002D20, symSize: 0x40 }
  - { offsetInCU: 0x7475, offset: 0x7475, size: 0x8, addend: 0x0, symName: __ZN6FiguraC2Ev, symObjAddr: 0x0, symBinAddr: 0x100001390, symSize: 0x90 }
  - { offsetInCU: 0x749E, offset: 0x749E, size: 0x8, addend: 0x0, symName: __ZNSt3__112basic_stringIcNS_11char_traitsIcEENS_9allocatorIcEEEC1B7v160006Ev, symObjAddr: 0x90, symBinAddr: 0x100001420, symSize: 0x20 }
  - { offsetInCU: 0x74C6, offset: 0x74C6, size: 0x8, addend: 0x0, symName: __ZNSt3__112basic_stringIcNS_11char_traitsIcEENS_9allocatorIcEEEaSB7v160006EPKc, symObjAddr: 0xB0, symBinAddr: 0x100001440, symSize: 0x30 }
  - { offsetInCU: 0x74F9, offset: 0x74F9, size: 0x8, addend: 0x0, symName: __ZN6FiguraC1Ev, symObjAddr: 0xF0, symBinAddr: 0x100001480, symSize: 0x20 }
  - { offsetInCU: 0x7522, offset: 0x7522, size: 0x8, addend: 0x0, symName: __ZN6FiguraC2EiNSt3__112basic_stringIcNS0_11char_traitsIcEENS0_9allocatorIcEEEE, symObjAddr: 0x110, symBinAddr: 0x1000014A0, symSize: 0x90 }
  - { offsetInCU: 0x7568, offset: 0x7568, size: 0x8, addend: 0x0, symName: __ZN6FiguraC1EiNSt3__112basic_stringIcNS0_11char_traitsIcEENS0_9allocatorIcEEEE, symObjAddr: 0x1A0, symBinAddr: 0x100001530, symSize: 0x30 }
  - { offsetInCU: 0x75AE, offset: 0x75AE, size: 0x8, addend: 0x0, symName: __ZN6Figura12muestraDatosEv, symObjAddr: 0x1D0, symBinAddr: 0x100001560, symSize: 0xB0 }
  - { offsetInCU: 0x75D3, offset: 0x75D3, size: 0x8, addend: 0x0, symName: __ZNSt3__113basic_ostreamIcNS_11char_traitsIcEEElsB7v160006EPFRS3_S4_E, symObjAddr: 0x2C0, symBinAddr: 0x100001650, symSize: 0x20 }
  - { offsetInCU: 0x7605, offset: 0x7605, size: 0x8, addend: 0x0, symName: __ZN6Figura11calculaAreaEv, symObjAddr: 0x380, symBinAddr: 0x100001710, symSize: 0x70 }
  - { offsetInCU: 0x762A, offset: 0x762A, size: 0x8, addend: 0x0, symName: __ZN6Figura6dibujaEv, symObjAddr: 0x3F0, symBinAddr: 0x100001780, symSize: 0x70 }
  - { offsetInCU: 0x76EE, offset: 0x76EE, size: 0x8, addend: 0x0, symName: __ZN8CuadradoC2Ev, symObjAddr: 0x460, symBinAddr: 0x1000017F0, symSize: 0x40 }
  - { offsetInCU: 0x7717, offset: 0x7717, size: 0x8, addend: 0x0, symName: __ZN8CuadradoC1Ev, symObjAddr: 0x4A0, symBinAddr: 0x100001830, symSize: 0x20 }
  - { offsetInCU: 0x7740, offset: 0x7740, size: 0x8, addend: 0x0, symName: __ZN8CuadradoC2EiNSt3__112basic_stringIcNS0_11char_traitsIcEENS0_9allocatorIcEEEEf, symObjAddr: 0x4C0, symBinAddr: 0x100001850, symSize: 0xB0 }
  - { offsetInCU: 0x7794, offset: 0x7794, size: 0x8, addend: 0x0, symName: __ZN8CuadradoC1EiNSt3__112basic_stringIcNS0_11char_traitsIcEENS0_9allocatorIcEEEEf, symObjAddr: 0x570, symBinAddr: 0x100001900, symSize: 0x30 }
  - { offsetInCU: 0x77E8, offset: 0x77E8, size: 0x8, addend: 0x0, symName: __ZN8Cuadrado12muestraDatosEv, symObjAddr: 0x5A0, symBinAddr: 0x100001930, symSize: 0xF0 }
  - { offsetInCU: 0x780D, offset: 0x780D, size: 0x8, addend: 0x0, symName: __ZN8Cuadrado11calculaAreaEv, symObjAddr: 0x690, symBinAddr: 0x100001A20, symSize: 0x70 }
  - { offsetInCU: 0x7832, offset: 0x7832, size: 0x8, addend: 0x0, symName: __ZN8Cuadrado6dibujaEv, symObjAddr: 0x700, symBinAddr: 0x100001A90, symSize: 0xD0 }
  - { offsetInCU: 0x7907, offset: 0x7907, size: 0x8, addend: 0x0, symName: __ZN9TrianguloC2Ev, symObjAddr: 0x7D0, symBinAddr: 0x100001B60, symSize: 0x50 }
  - { offsetInCU: 0x7930, offset: 0x7930, size: 0x8, addend: 0x0, symName: __ZN9TrianguloC1Ev, symObjAddr: 0x820, symBinAddr: 0x100001BB0, symSize: 0x20 }
  - { offsetInCU: 0x7959, offset: 0x7959, size: 0x8, addend: 0x0, symName: __ZN9TrianguloC2EiNSt3__112basic_stringIcNS0_11char_traitsIcEENS0_9allocatorIcEEEEff, symObjAddr: 0x840, symBinAddr: 0x100001BD0, symSize: 0xC0 }
  - { offsetInCU: 0x79BB, offset: 0x79BB, size: 0x8, addend: 0x0, symName: __ZN9TrianguloC1EiNSt3__112basic_stringIcNS0_11char_traitsIcEENS0_9allocatorIcEEEEff, symObjAddr: 0x900, symBinAddr: 0x100001C90, symSize: 0x40 }
  - { offsetInCU: 0x7A1D, offset: 0x7A1D, size: 0x8, addend: 0x0, symName: __ZN9Triangulo12muestraDatosEv, symObjAddr: 0x940, symBinAddr: 0x100001CD0, symSize: 0x120 }
  - { offsetInCU: 0x7A42, offset: 0x7A42, size: 0x8, addend: 0x0, symName: __ZN9Triangulo11calculaAreaEv, symObjAddr: 0xA60, symBinAddr: 0x100001DF0, symSize: 0x70 }
  - { offsetInCU: 0x7A67, offset: 0x7A67, size: 0x8, addend: 0x0, symName: __ZN9Triangulo6dibujaEv, symObjAddr: 0xAD0, symBinAddr: 0x100001E60, symSize: 0x110 }
  - { offsetInCU: 0x7B2B, offset: 0x7B2B, size: 0x8, addend: 0x0, symName: __ZN7CirculoC2Ev, symObjAddr: 0xBE0, symBinAddr: 0x100001F70, symSize: 0x40 }
  - { offsetInCU: 0x7B54, offset: 0x7B54, size: 0x8, addend: 0x0, symName: __ZN7CirculoC1Ev, symObjAddr: 0xC20, symBinAddr: 0x100001FB0, symSize: 0x20 }
  - { offsetInCU: 0x7B7D, offset: 0x7B7D, size: 0x8, addend: 0x0, symName: __ZN7CirculoC2EiNSt3__112basic_stringIcNS0_11char_traitsIcEENS0_9allocatorIcEEEEf, symObjAddr: 0xC40, symBinAddr: 0x100001FD0, symSize: 0xB0 }
  - { offsetInCU: 0x7BD1, offset: 0x7BD1, size: 0x8, addend: 0x0, symName: __ZN7CirculoC1EiNSt3__112basic_stringIcNS0_11char_traitsIcEENS0_9allocatorIcEEEEf, symObjAddr: 0xCF0, symBinAddr: 0x100002080, symSize: 0x30 }
  - { offsetInCU: 0x7C25, offset: 0x7C25, size: 0x8, addend: 0x0, symName: __ZN7Circulo12muestraDatosEv, symObjAddr: 0xD20, symBinAddr: 0x1000020B0, symSize: 0xB0 }
  - { offsetInCU: 0x7C4A, offset: 0x7C4A, size: 0x8, addend: 0x0, symName: __ZN7Circulo11calculaAreaEv, symObjAddr: 0xDD0, symBinAddr: 0x100002160, symSize: 0x80 }
  - { offsetInCU: 0x7C6F, offset: 0x7C6F, size: 0x8, addend: 0x0, symName: __ZN7Circulo6dibujaEv, symObjAddr: 0xE50, symBinAddr: 0x1000021E0, symSize: 0x140 }
  - { offsetInCU: 0x7D4B, offset: 0x7D4B, size: 0x8, addend: 0x0, symName: __ZN9PentagonoC2Ev, symObjAddr: 0xF90, symBinAddr: 0x100002320, symSize: 0x50 }
  - { offsetInCU: 0x7D74, offset: 0x7D74, size: 0x8, addend: 0x0, symName: __ZN9PentagonoC1Ev, symObjAddr: 0xFE0, symBinAddr: 0x100002370, symSize: 0x20 }
  - { offsetInCU: 0x7D9D, offset: 0x7D9D, size: 0x8, addend: 0x0, symName: __ZN9PentagonoC2EiNSt3__112basic_stringIcNS0_11char_traitsIcEENS0_9allocatorIcEEEEf, symObjAddr: 0x1000, symBinAddr: 0x100002390, symSize: 0xD0 }
  - { offsetInCU: 0x7DF1, offset: 0x7DF1, size: 0x8, addend: 0x0, symName: __ZN9PentagonoC1EiNSt3__112basic_stringIcNS0_11char_traitsIcEENS0_9allocatorIcEEEEf, symObjAddr: 0x10D0, symBinAddr: 0x100002460, symSize: 0x30 }
  - { offsetInCU: 0x7E45, offset: 0x7E45, size: 0x8, addend: 0x0, symName: __ZN9Pentagono12muestraDatosEv, symObjAddr: 0x1100, symBinAddr: 0x100002490, symSize: 0xB0 }
  - { offsetInCU: 0x7E6A, offset: 0x7E6A, size: 0x8, addend: 0x0, symName: __ZN9Pentagono11calculaAreaEv, symObjAddr: 0x11B0, symBinAddr: 0x100002540, symSize: 0x90 }
  - { offsetInCU: 0x7E8F, offset: 0x7E8F, size: 0x8, addend: 0x0, symName: __ZN9Pentagono6dibujaEv, symObjAddr: 0x1240, symBinAddr: 0x1000025D0, symSize: 0x140 }
  - { offsetInCU: 0x7EB5, offset: 0x7EB5, size: 0x8, addend: 0x0, symName: _main, symObjAddr: 0x1380, symBinAddr: 0x100002710, symSize: 0xE0 }
  - { offsetInCU: 0x7EE2, offset: 0x7EE2, size: 0x8, addend: 0x0, symName: __ZNSt3__112basic_stringIcNS_11char_traitsIcEENS_9allocatorIcEEEC1B7v160006IDnEEPKc, symObjAddr: 0x1460, symBinAddr: 0x1000027F0, symSize: 0x30 }
  - { offsetInCU: 0x7F1F, offset: 0x7F1F, size: 0x8, addend: 0x0, symName: __ZN9PentagonoD1Ev, symObjAddr: 0x1490, symBinAddr: 0x100002820, symSize: 0x20 }
  - { offsetInCU: 0x7F4A, offset: 0x7F4A, size: 0x8, addend: 0x0, symName: __ZN9PentagonoD2Ev, symObjAddr: 0x14B0, symBinAddr: 0x100002840, symSize: 0x20 }
  - { offsetInCU: 0x7F75, offset: 0x7F75, size: 0x8, addend: 0x0, symName: __ZN6FiguraD2Ev, symObjAddr: 0x14D0, symBinAddr: 0x100002860, symSize: 0x30 }
  - { offsetInCU: 0x7F9F, offset: 0x7F9F, size: 0x8, addend: 0x0, symName: __ZNSt3__112basic_stringIcNS_11char_traitsIcEENS_9allocatorIcEEEC2B7v160006Ev, symObjAddr: 0x1500, symBinAddr: 0x100002890, symSize: 0x40 }
  - { offsetInCU: 0x7FCC, offset: 0x7FCC, size: 0x8, addend: 0x0, symName: __ZNSt3__117__compressed_pairINS_12basic_stringIcNS_11char_traitsIcEENS_9allocatorIcEEE5__repES5_EC1B7v160006INS_18__default_init_tagESA_EEOT_OT0_, symObjAddr: 0x1540, symBinAddr: 0x1000028D0, symSize: 0x30 }
  - { offsetInCU: 0x8022, offset: 0x8022, size: 0x8, addend: 0x0, symName: __ZNSt3__112basic_stringIcNS_11char_traitsIcEENS_9allocatorIcEEE14__default_initB7v160006Ev, symObjAddr: 0x1580, symBinAddr: 0x100002910, symSize: 0xC0 }
  - { offsetInCU: 0x8073, offset: 0x8073, size: 0x8, addend: 0x0, symName: __ZNSt3__117__compressed_pairINS_12basic_stringIcNS_11char_traitsIcEENS_9allocatorIcEEE5__repES5_EC2B7v160006INS_18__default_init_tagESA_EEOT_OT0_, symObjAddr: 0x1640, symBinAddr: 0x1000029D0, symSize: 0x30 }
  - { offsetInCU: 0x80C9, offset: 0x80C9, size: 0x8, addend: 0x0, symName: __ZNSt3__122__compressed_pair_elemINS_12basic_stringIcNS_11char_traitsIcEENS_9allocatorIcEEE5__repELi0ELb0EEC2B7v160006ENS_18__default_init_tagE, symObjAddr: 0x1670, symBinAddr: 0x100002A00, symSize: 0x10 }
  - { offsetInCU: 0x80FC, offset: 0x80FC, size: 0x8, addend: 0x0, symName: __ZNSt3__122__compressed_pair_elemINS_9allocatorIcEELi1ELb1EEC2B7v160006ENS_18__default_init_tagE, symObjAddr: 0x1680, symBinAddr: 0x100002A10, symSize: 0x20 }
  - { offsetInCU: 0x812F, offset: 0x812F, size: 0x8, addend: 0x0, symName: __ZNSt3__19allocatorIcEC2B7v160006Ev, symObjAddr: 0x16A0, symBinAddr: 0x100002A30, symSize: 0x20 }
  - { offsetInCU: 0x8157, offset: 0x8157, size: 0x8, addend: 0x0, symName: __ZNSt3__116__non_trivial_ifILb1ENS_9allocatorIcEEEC2B7v160006Ev, symObjAddr: 0x16C0, symBinAddr: 0x100002A50, symSize: 0x10 }
  - { offsetInCU: 0x817F, offset: 0x817F, size: 0x8, addend: 0x0, symName: __ZNSt3__117__compressed_pairINS_12basic_stringIcNS_11char_traitsIcEENS_9allocatorIcEEE5__repES5_E5firstB7v160006Ev, symObjAddr: 0x16D0, symBinAddr: 0x100002A60, symSize: 0x20 }
  - { offsetInCU: 0x81A4, offset: 0x81A4, size: 0x8, addend: 0x0, symName: __ZNSt3__112basic_stringIcNS_11char_traitsIcEENS_9allocatorIcEEE11__recommendB7v160006Em, symObjAddr: 0x1700, symBinAddr: 0x100002A90, symSize: 0x90 }
  - { offsetInCU: 0x81D7, offset: 0x81D7, size: 0x8, addend: 0x0, symName: __ZNSt3__116allocator_traitsINS_9allocatorIcEEE8allocateB7v160006ERS2_m, symObjAddr: 0x1790, symBinAddr: 0x100002B20, symSize: 0x30 }
  - { offsetInCU: 0x8209, offset: 0x8209, size: 0x8, addend: 0x0, symName: __ZNSt3__112basic_stringIcNS_11char_traitsIcEENS_9allocatorIcEEE7__allocB7v160006Ev, symObjAddr: 0x17C0, symBinAddr: 0x100002B50, symSize: 0x20 }
  - { offsetInCU: 0x822E, offset: 0x822E, size: 0x8, addend: 0x0, symName: __ZNSt3__112basic_stringIcNS_11char_traitsIcEENS_9allocatorIcEEE16__begin_lifetimeB7v160006EPcm, symObjAddr: 0x17E0, symBinAddr: 0x100002B70, symSize: 0x10 }
  - { offsetInCU: 0x8260, offset: 0x8260, size: 0x8, addend: 0x0, symName: __ZNSt3__112basic_stringIcNS_11char_traitsIcEENS_9allocatorIcEEE18__set_long_pointerB7v160006EPc, symObjAddr: 0x17F0, symBinAddr: 0x100002B80, symSize: 0x30 }
  - { offsetInCU: 0x8293, offset: 0x8293, size: 0x8, addend: 0x0, symName: __ZNSt3__112basic_stringIcNS_11char_traitsIcEENS_9allocatorIcEEE14__set_long_capB7v160006Em, symObjAddr: 0x1820, symBinAddr: 0x100002BB0, symSize: 0x70 }
  - { offsetInCU: 0x82C6, offset: 0x82C6, size: 0x8, addend: 0x0, symName: __ZNSt3__112basic_stringIcNS_11char_traitsIcEENS_9allocatorIcEEE15__set_long_sizeB7v160006Em, symObjAddr: 0x1890, symBinAddr: 0x100002C20, symSize: 0x30 }
  - { offsetInCU: 0x82F9, offset: 0x82F9, size: 0x8, addend: 0x0, symName: __ZNSt3__122__compressed_pair_elemINS_12basic_stringIcNS_11char_traitsIcEENS_9allocatorIcEEE5__repELi0ELb0EE5__getB7v160006Ev, symObjAddr: 0x18C0, symBinAddr: 0x100002C50, symSize: 0x10 }
  - { offsetInCU: 0x831E, offset: 0x831E, size: 0x8, addend: 0x0, symName: __ZNSt3__112basic_stringIcNS_11char_traitsIcEENS_9allocatorIcEEE10__align_itB7v160006ILm16EEEmm, symObjAddr: 0x18D0, symBinAddr: 0x100002C60, symSize: 0x20 }
  - { offsetInCU: 0x834B, offset: 0x834B, size: 0x8, addend: 0x0, symName: __ZNSt3__19allocatorIcE8allocateB7v160006Em, symObjAddr: 0x18F0, symBinAddr: 0x100002C80, symSize: 0x80 }
  - { offsetInCU: 0x8388, offset: 0x8388, size: 0x8, addend: 0x0, symName: __ZNSt3__116allocator_traitsINS_9allocatorIcEEE8max_sizeB7v160006IS2_vEEmRKS2_, symObjAddr: 0x1970, symBinAddr: 0x100002D00, symSize: 0x20 }
  - { offsetInCU: 0x83B5, offset: 0x83B5, size: 0x8, addend: 0x0, symName: __ZNKSt3__19allocatorIcE8max_sizeB7v160006Ev, symObjAddr: 0x19F0, symBinAddr: 0x100002D80, symSize: 0x20 }
  - { offsetInCU: 0x83D9, offset: 0x83D9, size: 0x8, addend: 0x0, symName: __ZNSt3__117__compressed_pairINS_12basic_stringIcNS_11char_traitsIcEENS_9allocatorIcEEE5__repES5_E6secondB7v160006Ev, symObjAddr: 0x1A30, symBinAddr: 0x100002DC0, symSize: 0x20 }
  - { offsetInCU: 0x83FD, offset: 0x83FD, size: 0x8, addend: 0x0, symName: __ZNSt3__122__compressed_pair_elemINS_9allocatorIcEELi1ELb1EE5__getB7v160006Ev, symObjAddr: 0x1A50, symBinAddr: 0x100002DE0, symSize: 0x10 }
  - { offsetInCU: 0x8422, offset: 0x8422, size: 0x8, addend: 0x0, symName: __ZNKSt3__19basic_iosIcNS_11char_traitsIcEEE5widenB7v160006Ec, symObjAddr: 0x1A60, symBinAddr: 0x100002DF0, symSize: 0x90 }
  - { offsetInCU: 0x848E, offset: 0x848E, size: 0x8, addend: 0x0, symName: __ZNKSt3__15ctypeIcE5widenB7v160006Ec, symObjAddr: 0x1B20, symBinAddr: 0x100002EB0, symSize: 0x30 }
  - { offsetInCU: 0x84C2, offset: 0x84C2, size: 0x8, addend: 0x0, symName: __ZNSt3__111char_traitsIcE6lengthEPKc, symObjAddr: 0x1D40, symBinAddr: 0x1000030D0, symSize: 0x40 }
  - { offsetInCU: 0x8502, offset: 0x8502, size: 0x8, addend: 0x0, symName: __ZNKSt3__113basic_ostreamIcNS_11char_traitsIcEEE6sentrycvbB7v160006Ev, symObjAddr: 0x1D80, symBinAddr: 0x100003110, symSize: 0x20 }
  - { offsetInCU: 0x8526, offset: 0x8526, size: 0x8, addend: 0x0, symName: __ZNSt3__119ostreambuf_iteratorIcNS_11char_traitsIcEEEC1B7v160006ERNS_13basic_ostreamIcS2_EE, symObjAddr: 0x1FC0, symBinAddr: 0x100003350, symSize: 0x30 }
  - { offsetInCU: 0x855D, offset: 0x855D, size: 0x8, addend: 0x0, symName: __ZNKSt3__18ios_base5flagsB7v160006Ev, symObjAddr: 0x1FF0, symBinAddr: 0x100003380, symSize: 0x20 }
  - { offsetInCU: 0x8584, offset: 0x8584, size: 0x8, addend: 0x0, symName: __ZNKSt3__19basic_iosIcNS_11char_traitsIcEEE4fillB7v160006Ev, symObjAddr: 0x2010, symBinAddr: 0x1000033A0, symSize: 0x70 }
  - { offsetInCU: 0x85AA, offset: 0x85AA, size: 0x8, addend: 0x0, symName: __ZNKSt3__119ostreambuf_iteratorIcNS_11char_traitsIcEEE6failedB7v160006Ev, symObjAddr: 0x2080, symBinAddr: 0x100003410, symSize: 0x20 }
  - { offsetInCU: 0x85CE, offset: 0x85CE, size: 0x8, addend: 0x0, symName: __ZNSt3__19basic_iosIcNS_11char_traitsIcEEE8setstateB7v160006Ej, symObjAddr: 0x20A0, symBinAddr: 0x100003430, symSize: 0x30 }
  - { offsetInCU: 0x8602, offset: 0x8602, size: 0x8, addend: 0x0, symName: __ZNKSt3__18ios_base5widthB7v160006Ev, symObjAddr: 0x20D0, symBinAddr: 0x100003460, symSize: 0x20 }
  - { offsetInCU: 0x8628, offset: 0x8628, size: 0x8, addend: 0x0, symName: __ZNSt3__115basic_streambufIcNS_11char_traitsIcEEE5sputnB7v160006EPKcl, symObjAddr: 0x20F0, symBinAddr: 0x100003480, symSize: 0x30 }
  - { offsetInCU: 0x8668, offset: 0x8668, size: 0x8, addend: 0x0, symName: __ZNSt3__112basic_stringIcNS_11char_traitsIcEENS_9allocatorIcEEEC1B7v160006Emc, symObjAddr: 0x2120, symBinAddr: 0x1000034B0, symSize: 0x30 }
  - { offsetInCU: 0x86AE, offset: 0x86AE, size: 0x8, addend: 0x0, symName: __ZNKSt3__112basic_stringIcNS_11char_traitsIcEENS_9allocatorIcEEE4dataB7v160006Ev, symObjAddr: 0x2150, symBinAddr: 0x1000034E0, symSize: 0x30 }
  - { offsetInCU: 0x86D3, offset: 0x86D3, size: 0x8, addend: 0x0, symName: __ZNSt3__18ios_base5widthB7v160006El, symObjAddr: 0x2180, symBinAddr: 0x100003510, symSize: 0x30 }
  - { offsetInCU: 0x8717, offset: 0x8717, size: 0x8, addend: 0x0, symName: __ZNSt3__112basic_stringIcNS_11char_traitsIcEENS_9allocatorIcEEEC2B7v160006Emc, symObjAddr: 0x21B0, symBinAddr: 0x100003540, symSize: 0x50 }
  - { offsetInCU: 0x875D, offset: 0x875D, size: 0x8, addend: 0x0, symName: __ZNKSt3__112basic_stringIcNS_11char_traitsIcEENS_9allocatorIcEEE13__get_pointerB7v160006Ev, symObjAddr: 0x2210, symBinAddr: 0x1000035A0, symSize: 0x50 }
  - { offsetInCU: 0x8781, offset: 0x8781, size: 0x8, addend: 0x0, symName: __ZNKSt3__112basic_stringIcNS_11char_traitsIcEENS_9allocatorIcEEE9__is_longB7v160006Ev, symObjAddr: 0x2260, symBinAddr: 0x1000035F0, symSize: 0x60 }
  - { offsetInCU: 0x87A5, offset: 0x87A5, size: 0x8, addend: 0x0, symName: __ZNKSt3__112basic_stringIcNS_11char_traitsIcEENS_9allocatorIcEEE18__get_long_pointerB7v160006Ev, symObjAddr: 0x22C0, symBinAddr: 0x100003650, symSize: 0x20 }
  - { offsetInCU: 0x87C9, offset: 0x87C9, size: 0x8, addend: 0x0, symName: __ZNKSt3__112basic_stringIcNS_11char_traitsIcEENS_9allocatorIcEEE19__get_short_pointerB7v160006Ev, symObjAddr: 0x22E0, symBinAddr: 0x100003670, symSize: 0x30 }
  - { offsetInCU: 0x87ED, offset: 0x87ED, size: 0x8, addend: 0x0, symName: __ZNKSt3__117__compressed_pairINS_12basic_stringIcNS_11char_traitsIcEENS_9allocatorIcEEE5__repES5_E5firstB7v160006Ev, symObjAddr: 0x2310, symBinAddr: 0x1000036A0, symSize: 0x20 }
  - { offsetInCU: 0x8811, offset: 0x8811, size: 0x8, addend: 0x0, symName: __ZNKSt3__122__compressed_pair_elemINS_12basic_stringIcNS_11char_traitsIcEENS_9allocatorIcEEE5__repELi0ELb0EE5__getB7v160006Ev, symObjAddr: 0x2330, symBinAddr: 0x1000036C0, symSize: 0x10 }
  - { offsetInCU: 0x8836, offset: 0x8836, size: 0x8, addend: 0x0, symName: __ZNSt3__114pointer_traitsIPKcE10pointer_toB7v160006ERS1_, symObjAddr: 0x2340, symBinAddr: 0x1000036D0, symSize: 0x10 }
  - { offsetInCU: 0x8858, offset: 0x8858, size: 0x8, addend: 0x0, symName: __ZNSt3__119ostreambuf_iteratorIcNS_11char_traitsIcEEEC2B7v160006ERNS_13basic_ostreamIcS2_EE, symObjAddr: 0x2350, symBinAddr: 0x1000036E0, symSize: 0x60 }
  - { offsetInCU: 0x888F, offset: 0x888F, size: 0x8, addend: 0x0, symName: __ZNKSt3__19basic_iosIcNS_11char_traitsIcEEE5rdbufB7v160006Ev, symObjAddr: 0x23B0, symBinAddr: 0x100003740, symSize: 0x20 }
  - { offsetInCU: 0x88B5, offset: 0x88B5, size: 0x8, addend: 0x0, symName: __ZNKSt3__18ios_base5rdbufB7v160006Ev, symObjAddr: 0x23D0, symBinAddr: 0x100003760, symSize: 0x20 }
  - { offsetInCU: 0x88DA, offset: 0x88DA, size: 0x8, addend: 0x0, symName: __ZNSt3__111char_traitsIcE11eq_int_typeEii, symObjAddr: 0x23F0, symBinAddr: 0x100003780, symSize: 0x20 }
  - { offsetInCU: 0x890B, offset: 0x890B, size: 0x8, addend: 0x0, symName: __ZNSt3__111char_traitsIcE3eofEv, symObjAddr: 0x2410, symBinAddr: 0x1000037A0, symSize: 0x10 }
  - { offsetInCU: 0x891F, offset: 0x891F, size: 0x8, addend: 0x0, symName: __ZNSt3__18ios_base8setstateB7v160006Ej, symObjAddr: 0x2420, symBinAddr: 0x1000037B0, symSize: 0x30 }
  - { offsetInCU: 0x8954, offset: 0x8954, size: 0x8, addend: 0x0, symName: __ZNKSt3__112basic_stringIcNS_11char_traitsIcEENS_9allocatorIcEEE4sizeB7v160006Ev, symObjAddr: 0x2470, symBinAddr: 0x100003800, symSize: 0x50 }
  - { offsetInCU: 0x8978, offset: 0x8978, size: 0x8, addend: 0x0, symName: __ZNKSt3__112basic_stringIcNS_11char_traitsIcEENS_9allocatorIcEEE15__get_long_sizeB7v160006Ev, symObjAddr: 0x24C0, symBinAddr: 0x100003850, symSize: 0x20 }
  - { offsetInCU: 0x899C, offset: 0x899C, size: 0x8, addend: 0x0, symName: __ZNKSt3__112basic_stringIcNS_11char_traitsIcEENS_9allocatorIcEEE16__get_short_sizeB7v160006Ev, symObjAddr: 0x24E0, symBinAddr: 0x100003870, symSize: 0x30 }
  - { offsetInCU: 0x89C0, offset: 0x89C0, size: 0x8, addend: 0x0, symName: __ZNSt3__112basic_stringIcNS_11char_traitsIcEENS_9allocatorIcEEEC2B7v160006IDnEEPKc, symObjAddr: 0x2510, symBinAddr: 0x1000038A0, symSize: 0x55 }
...
