---
triple:          'x86_64-apple-darwin'
binary-path:     '/Users/ochoagram/Documents/tec/c++/tarea/output/miSeries'
relocations:
  - { offsetInCU: 0x341E, offset: 0x341E, size: 0x8, addend: 0x0, symName: __ZNSt3__124__put_character_sequenceB7v160006IcNS_11char_traitsIcEEEERNS_13basic_ostreamIT_T0_EES7_PKS4_m, symObjAddr: 0x2B10, symBinAddr: 0x100004FD0, symSize: 0x1F0 }
  - { offsetInCU: 0x71C0, offset: 0x71C0, size: 0x8, addend: 0x0, symName: __ZNSt3__17getlineB7v160006IcNS_11char_traitsIcEENS_9allocatorIcEEEERNS_13basic_istreamIT_T0_EES9_RNS_12basic_stringIS6_S7_T1_EES6_, symObjAddr: 0x790, symBinAddr: 0x100002C50, symSize: 0x220 }
  - { offsetInCU: 0x727E, offset: 0x727E, size: 0x8, addend: 0x0, symName: __ZNSt3__1lsB7v160006IcNS_11char_traitsIcEENS_9allocatorIcEEEERNS_13basic_ostreamIT_T0_EES9_RKNS_12basic_stringIS6_S7_T1_EE, symObjAddr: 0xB10, symBinAddr: 0x100002FD0, symSize: 0x50 }
  - { offsetInCU: 0x72D6, offset: 0x72D6, size: 0x8, addend: 0x0, symName: __ZNSt3__1lsB7v160006INS_11char_traitsIcEEEERNS_13basic_ostreamIcT_EES6_PKc, symObjAddr: 0xB60, symBinAddr: 0x100003020, symSize: 0x40 }
  - { offsetInCU: 0x731C, offset: 0x731C, size: 0x8, addend: 0x0, symName: __ZNSt3__14endlB7v160006IcNS_11char_traitsIcEEEERNS_13basic_ostreamIT_T0_EES7_, symObjAddr: 0xBC0, symBinAddr: 0x100003080, symSize: 0x50 }
  - { offsetInCU: 0x7367, offset: 0x7367, size: 0x8, addend: 0x0, symName: __ZNSt3__17getlineB7v160006IcNS_11char_traitsIcEENS_9allocatorIcEEEERNS_13basic_istreamIT_T0_EES9_RNS_12basic_stringIS6_S7_T1_EE, symObjAddr: 0xDB0, symBinAddr: 0x100003270, symSize: 0x50 }
  - { offsetInCU: 0x73BF, offset: 0x73BF, size: 0x8, addend: 0x0, symName: __ZNSt3__1neB7v160006IP5ListaEEbRKNS_11__wrap_iterIT_EES7_, symObjAddr: 0x16B0, symBinAddr: 0x100003B70, symSize: 0x30 }
  - { offsetInCU: 0x7402, offset: 0x7402, size: 0x8, addend: 0x0, symName: __ZNSt3__119__debug_db_insert_cB7v160006INS_12basic_stringIcNS_11char_traitsIcEENS_9allocatorIcEEEEEEvPT_, symObjAddr: 0x1AD0, symBinAddr: 0x100003F90, symSize: 0x10 }
  - { offsetInCU: 0x7433, offset: 0x7433, size: 0x8, addend: 0x0, symName: __ZNSt3__130__libcpp_is_constant_evaluatedB7v160006Ev, symObjAddr: 0x1C50, symBinAddr: 0x100004110, symSize: 0x10 }
  - { offsetInCU: 0x7450, offset: 0x7450, size: 0x8, addend: 0x0, symName: __ZNSt3__117__libcpp_allocateB7v160006Emm, symObjAddr: 0x1F30, symBinAddr: 0x1000043F0, symSize: 0x20 }
  - { offsetInCU: 0x748D, offset: 0x748D, size: 0x8, addend: 0x0, symName: __ZNSt3__121__libcpp_operator_newB7v160006IJmEEEPvDpT_, symObjAddr: 0x1F70, symBinAddr: 0x100004430, symSize: 0x20 }
  - { offsetInCU: 0x74F9, offset: 0x74F9, size: 0x8, addend: 0x0, symName: __ZNSt3__125__debug_db_invalidate_allB7v160006INS_12basic_stringIcNS_11char_traitsIcEENS_9allocatorIcEEEEEEvPT_, symObjAddr: 0x2100, symBinAddr: 0x1000045C0, symSize: 0x10 }
  - { offsetInCU: 0x772C, offset: 0x772C, size: 0x8, addend: 0x0, symName: __ZNSt3__123__str_find_first_not_ofB7v160006IcmNS_11char_traitsIcEELm18446744073709551615EEET0_PKT_S3_S4_S3_, symObjAddr: 0x28A0, symBinAddr: 0x100004D60, symSize: 0xB0 }
  - { offsetInCU: 0x77EF, offset: 0x77EF, size: 0x8, addend: 0x0, symName: __ZNSt3__112__to_addressB7v160006IKcEEPT_S3_, symObjAddr: 0x2980, symBinAddr: 0x100004E40, symSize: 0x10 }
  - { offsetInCU: 0x7857, offset: 0x7857, size: 0x8, addend: 0x0, symName: __ZNSt3__122__str_find_last_not_ofB7v160006IcmNS_11char_traitsIcEELm18446744073709551615EEET0_PKT_S3_S4_S3_, symObjAddr: 0x2A40, symBinAddr: 0x100004F00, symSize: 0xB0 }
  - { offsetInCU: 0x78FD, offset: 0x78FD, size: 0x8, addend: 0x0, symName: __ZNSt3__116__pad_and_outputB7v160006IcNS_11char_traitsIcEEEENS_19ostreambuf_iteratorIT_T0_EES6_PKS4_S8_S8_RNS_8ios_baseES4_, symObjAddr: 0x2D60, symBinAddr: 0x100005220, symSize: 0x220 }
  - { offsetInCU: 0x79CD, offset: 0x79CD, size: 0x8, addend: 0x0, symName: __ZNSt3__19use_facetB7v160006INS_5ctypeIcEEEERKT_RKNS_6localeE, symObjAddr: 0x3250, symBinAddr: 0x100005710, symSize: 0x30 }
  - { offsetInCU: 0x7E9C, offset: 0x7E9C, size: 0x8, addend: 0x0, symName: __ZNSt3__118__constexpr_strlenB7v160006EPKc, symObjAddr: 0x32B0, symBinAddr: 0x100005770, symSize: 0x20 }
  - { offsetInCU: 0x7EC8, offset: 0x7EC8, size: 0x8, addend: 0x0, symName: __ZNSt3__119__debug_db_insert_cB7v160006INS_6vectorI5ListaNS_9allocatorIS2_EEEEEEvPT_, symObjAddr: 0x3350, symBinAddr: 0x100005810, symSize: 0x10 }
  - { offsetInCU: 0x7EF9, offset: 0x7EF9, size: 0x8, addend: 0x0, symName: __ZNSt3__118__debug_db_erase_cB7v160006INS_6vectorI5ListaNS_9allocatorIS2_EEEEEEvPT_, symObjAddr: 0x35E0, symBinAddr: 0x100005AA0, symSize: 0x10 }
  - { offsetInCU: 0x7F2A, offset: 0x7F2A, size: 0x8, addend: 0x0, symName: __ZNSt3__112__to_addressB7v160006I5ListaEEPT_S3_, symObjAddr: 0x3710, symBinAddr: 0x100005BD0, symSize: 0x10 }
  - { offsetInCU: 0x7F5F, offset: 0x7F5F, size: 0x8, addend: 0x0, symName: __ZNSt3__119__libcpp_deallocateB7v160006EPvmm, symObjAddr: 0x3880, symBinAddr: 0x100005D40, symSize: 0x30 }
  - { offsetInCU: 0x7FA7, offset: 0x7FA7, size: 0x8, addend: 0x0, symName: __ZNSt3__127__do_deallocate_handle_sizeB7v160006IJEEEvPvmDpT_, symObjAddr: 0x38B0, symBinAddr: 0x100005D70, symSize: 0x20 }
  - { offsetInCU: 0x7FE5, offset: 0x7FE5, size: 0x8, addend: 0x0, symName: __ZNSt3__124__libcpp_operator_deleteB7v160006IJPvEEEvDpT_, symObjAddr: 0x38D0, symBinAddr: 0x100005D90, symSize: 0x20 }
  - { offsetInCU: 0x801A, offset: 0x801A, size: 0x8, addend: 0x0, symName: __ZNSt3__1eqB7v160006IP5ListaEEbRKNS_11__wrap_iterIT_EES7_, symObjAddr: 0x39F0, symBinAddr: 0x100005EB0, symSize: 0x40 }
  - { offsetInCU: 0x805D, offset: 0x805D, size: 0x8, addend: 0x0, symName: __ZNSt3__13maxB7v160006ImEERKT_S3_S3_, symObjAddr: 0x41F0, symBinAddr: 0x1000066B0, symSize: 0x30 }
  - { offsetInCU: 0x80A0, offset: 0x80A0, size: 0x8, addend: 0x0, symName: __ZNSt3__13minB7v160006ImEERKT_S3_S3_, symObjAddr: 0x4220, symBinAddr: 0x1000066E0, symSize: 0x30 }
  - { offsetInCU: 0x82E4, offset: 0x82E4, size: 0x8, addend: 0x0, symName: __ZNSt3__13minB7v160006ImNS_6__lessImmEEEERKT_S5_S5_T0_, symObjAddr: 0x42A0, symBinAddr: 0x100006760, symSize: 0x50 }
  - { offsetInCU: 0x8379, offset: 0x8379, size: 0x8, addend: 0x0, symName: __ZNSt3__120__throw_length_errorB7v160006EPKc, symObjAddr: 0x4380, symBinAddr: 0x100006840, symSize: 0x70 }
  - { offsetInCU: 0x83A1, offset: 0x83A1, size: 0x8, addend: 0x0, symName: __ZNSt3__13maxB7v160006ImNS_6__lessImmEEEERKT_S5_S5_T0_, symObjAddr: 0x4460, symBinAddr: 0x100006920, symSize: 0x50 }
  - { offsetInCU: 0x83FB, offset: 0x83FB, size: 0x8, addend: 0x0, symName: __ZNSt3__119__allocate_at_leastB7v160006INS_9allocatorI5ListaEEEENS_19__allocation_resultINS_16allocator_traitsIT_E7pointerEEERS6_m, symObjAddr: 0x45B0, symBinAddr: 0x100006A70, symSize: 0x40 }
  - { offsetInCU: 0x843E, offset: 0x843E, size: 0x8, addend: 0x0, symName: __ZNSt3__142__uninitialized_allocator_move_if_noexceptB7v160006INS_9allocatorI5ListaEENS_16reverse_iteratorIPS2_EES6_S6_EET2_RT_T0_T1_S7_, symObjAddr: 0x4770, symBinAddr: 0x100006C30, symSize: 0x190 }
  - { offsetInCU: 0x84DD, offset: 0x84DD, size: 0x8, addend: 0x0, symName: __ZNSt3__14swapB7v160006IP5ListaEEvRT_S4_, symObjAddr: 0x4950, symBinAddr: 0x100006E10, symSize: 0x40 }
  - { offsetInCU: 0x852E, offset: 0x852E, size: 0x8, addend: 0x0, symName: __ZNSt3__125__debug_db_invalidate_allB7v160006INS_6vectorI5ListaNS_9allocatorIS2_EEEEEEvPT_, symObjAddr: 0x4A40, symBinAddr: 0x100006F00, symSize: 0x10 }
  - { offsetInCU: 0x855F, offset: 0x855F, size: 0x8, addend: 0x0, symName: __ZNSt3__122__make_exception_guardB7v160006INS_29_AllocatorDestroyRangeReverseINS_9allocatorI5ListaEENS_16reverse_iteratorIPS3_EEEEEENS_28__exception_guard_exceptionsIT_EESA_, symObjAddr: 0x4A50, symBinAddr: 0x100006F10, symSize: 0x60 }
  - { offsetInCU: 0x8594, offset: 0x8594, size: 0x8, addend: 0x0, symName: __ZNSt3__1neB7v160006IP5ListaS2_EEbRKNS_16reverse_iteratorIT_EERKNS3_IT0_EE, symObjAddr: 0x4AF0, symBinAddr: 0x100006FB0, symSize: 0x40 }
  - { offsetInCU: 0x85E0, offset: 0x85E0, size: 0x8, addend: 0x0, symName: __ZNSt3__112__to_addressB7v160006INS_16reverse_iteratorIP5ListaEEvEENS_5decayIDTclsr19__to_address_helperIT_EE6__callclsr3stdE7declvalIRKS6_EEEEE4typeES8_, symObjAddr: 0x4B30, symBinAddr: 0x100006FF0, symSize: 0x20 }
  - { offsetInCU: 0x863F, offset: 0x863F, size: 0x8, addend: 0x0, symName: __ZNSt3__119__allocator_destroyB7v160006INS_9allocatorI5ListaEENS_16reverse_iteratorINS4_IPS2_EEEES7_EEvRT_T0_T1_, symObjAddr: 0x4E20, symBinAddr: 0x1000072E0, symSize: 0x70 }
  - { offsetInCU: 0x86A2, offset: 0x86A2, size: 0x8, addend: 0x0, symName: __ZNSt3__1neB7v160006INS_16reverse_iteratorIP5ListaEES4_EEbRKNS1_IT_EERKNS1_IT0_EE, symObjAddr: 0x4EC0, symBinAddr: 0x100007380, symSize: 0x50 }
  - { offsetInCU: 0x86EE, offset: 0x86EE, size: 0x8, addend: 0x0, symName: __ZNSt3__112__to_addressB7v160006INS_16reverse_iteratorINS1_IP5ListaEEEEvEENS_5decayIDTclsr19__to_address_helperIT_EE6__callclsr3stdE7declvalIRKS7_EEEEE4typeES9_, symObjAddr: 0x4F10, symBinAddr: 0x1000073D0, symSize: 0x20 }
  - { offsetInCU: 0x8905, offset: 0x8905, size: 0x8, addend: 0x0, symName: __ZSt28__throw_bad_array_new_lengthB7v160006v, symObjAddr: 0x1EF0, symBinAddr: 0x1000043B0, symSize: 0x40 }
  - { offsetInCU: 0x919E, offset: 0x919E, size: 0x8, addend: 0x0, symName: __ZNSt3__16vectorI5ListaNS_9allocatorIS1_EEE26__swap_out_circular_bufferERNS_14__split_bufferIS1_RS3_EE, symObjAddr: 0x4010, symBinAddr: 0x1000064D0, symSize: 0x130 }
  - { offsetInCU: 0xB3E1, offset: 0xB3E1, size: 0x8, addend: 0x0, symName: __ZN15SeriesOPeliculaC2Ev, symObjAddr: 0x0, symBinAddr: 0x1000024C0, symSize: 0x120 }
  - { offsetInCU: 0xB40B, offset: 0xB40B, size: 0x8, addend: 0x0, symName: __ZNSt3__112basic_stringIcNS_11char_traitsIcEENS_9allocatorIcEEEC1B7v160006Ev, symObjAddr: 0x120, symBinAddr: 0x1000025E0, symSize: 0x20 }
  - { offsetInCU: 0xB434, offset: 0xB434, size: 0x8, addend: 0x0, symName: __ZNSt3__112basic_stringIcNS_11char_traitsIcEENS_9allocatorIcEEEixB7v160006Em, symObjAddr: 0x140, symBinAddr: 0x100002600, symSize: 0x30 }
  - { offsetInCU: 0xB467, offset: 0xB467, size: 0x8, addend: 0x0, symName: __ZNSt3__112basic_stringIcNS_11char_traitsIcEENS_9allocatorIcEEE5clearB7v160006Ev, symObjAddr: 0x170, symBinAddr: 0x100002630, symSize: 0xA0 }
  - { offsetInCU: 0xB48E, offset: 0xB48E, size: 0x8, addend: 0x0, symName: __ZN15SeriesOPeliculaC1Ev, symObjAddr: 0x220, symBinAddr: 0x1000026E0, symSize: 0x20 }
  - { offsetInCU: 0xB4B8, offset: 0xB4B8, size: 0x8, addend: 0x0, symName: __ZN15SeriesOPelicula16setnombreDeSerieENSt3__112basic_stringIcNS0_11char_traitsIcEENS0_9allocatorIcEEEE, symObjAddr: 0x240, symBinAddr: 0x100002700, symSize: 0x20 }
  - { offsetInCU: 0xB4ED, offset: 0xB4ED, size: 0x8, addend: 0x0, symName: __ZN15SeriesOPelicula16getnombreDeSerieEv, symObjAddr: 0x260, symBinAddr: 0x100002720, symSize: 0x30 }
  - { offsetInCU: 0xB513, offset: 0xB513, size: 0x8, addend: 0x0, symName: __ZN15SeriesOPelicula9setGeneroENSt3__112basic_stringIcNS0_11char_traitsIcEENS0_9allocatorIcEEEE, symObjAddr: 0x290, symBinAddr: 0x100002750, symSize: 0x30 }
  - { offsetInCU: 0xB548, offset: 0xB548, size: 0x8, addend: 0x0, symName: __ZN15SeriesOPelicula9getGeneroEv, symObjAddr: 0x2C0, symBinAddr: 0x100002780, symSize: 0x30 }
  - { offsetInCU: 0xB56E, offset: 0xB56E, size: 0x8, addend: 0x0, symName: __ZN15SeriesOPelicula13setTemporadasEi, symObjAddr: 0x2F0, symBinAddr: 0x1000027B0, symSize: 0x20 }
  - { offsetInCU: 0xB5A2, offset: 0xB5A2, size: 0x8, addend: 0x0, symName: __ZN15SeriesOPelicula13getTemporadasEv, symObjAddr: 0x310, symBinAddr: 0x1000027D0, symSize: 0x20 }
  - { offsetInCU: 0xB5C8, offset: 0xB5C8, size: 0x8, addend: 0x0, symName: __ZN15SeriesOPelicula12setCapitulosEi, symObjAddr: 0x330, symBinAddr: 0x1000027F0, symSize: 0x20 }
  - { offsetInCU: 0xB5FC, offset: 0xB5FC, size: 0x8, addend: 0x0, symName: __ZN15SeriesOPelicula12getCapitulosEv, symObjAddr: 0x350, symBinAddr: 0x100002810, symSize: 0x20 }
  - { offsetInCU: 0xB622, offset: 0xB622, size: 0x8, addend: 0x0, symName: __ZN15SeriesOPelicula6setAnoEi, symObjAddr: 0x370, symBinAddr: 0x100002830, symSize: 0x20 }
  - { offsetInCU: 0xB656, offset: 0xB656, size: 0x8, addend: 0x0, symName: __ZN15SeriesOPelicula6getAnoEv, symObjAddr: 0x390, symBinAddr: 0x100002850, symSize: 0x20 }
  - { offsetInCU: 0xB67C, offset: 0xB67C, size: 0x8, addend: 0x0, symName: __ZN15SeriesOPelicula16setClasificacionENSt3__112basic_stringIcNS0_11char_traitsIcEENS0_9allocatorIcEEEE, symObjAddr: 0x3B0, symBinAddr: 0x100002870, symSize: 0x30 }
  - { offsetInCU: 0xB6B1, offset: 0xB6B1, size: 0x8, addend: 0x0, symName: __ZN15SeriesOPelicula16getClasificacionEv, symObjAddr: 0x3E0, symBinAddr: 0x1000028A0, symSize: 0x30 }
  - { offsetInCU: 0xB6D7, offset: 0xB6D7, size: 0x8, addend: 0x0, symName: __ZN15SeriesOPelicula10setActoresENSt3__112basic_stringIcNS0_11char_traitsIcEENS0_9allocatorIcEEEE, symObjAddr: 0x410, symBinAddr: 0x1000028D0, symSize: 0x30 }
  - { offsetInCU: 0xB70C, offset: 0xB70C, size: 0x8, addend: 0x0, symName: __ZN15SeriesOPelicula10getActoresEv, symObjAddr: 0x440, symBinAddr: 0x100002900, symSize: 0x250 }
  - { offsetInCU: 0xB84D, offset: 0xB84D, size: 0x8, addend: 0x0, symName: __ZNSt3__119basic_istringstreamIcNS_11char_traitsIcEENS_9allocatorIcEEEC1B7v160006ERKNS_12basic_stringIcS2_S4_EEj, symObjAddr: 0x690, symBinAddr: 0x100002B50, symSize: 0x100 }
  - { offsetInCU: 0xB894, offset: 0xB894, size: 0x8, addend: 0x0, symName: __ZNKSt3__19basic_iosIcNS_11char_traitsIcEEEcvPvB7v160006Ev, symObjAddr: 0x9B0, symBinAddr: 0x100002E70, symSize: 0x50 }
  - { offsetInCU: 0xB8B8, offset: 0xB8B8, size: 0x8, addend: 0x0, symName: __ZNKSt3__112basic_stringIcNS_11char_traitsIcEENS_9allocatorIcEEE17find_first_not_ofB7v160006Ecm, symObjAddr: 0xA00, symBinAddr: 0x100002EC0, symSize: 0x50 }
  - { offsetInCU: 0xB8FC, offset: 0xB8FC, size: 0x8, addend: 0x0, symName: __ZNKSt3__112basic_stringIcNS_11char_traitsIcEENS_9allocatorIcEEE16find_last_not_ofB7v160006Ecm, symObjAddr: 0xA50, symBinAddr: 0x100002F10, symSize: 0x50 }
  - { offsetInCU: 0xB941, offset: 0xB941, size: 0x8, addend: 0x0, symName: __ZNKSt3__112basic_stringIcNS_11char_traitsIcEENS_9allocatorIcEEE6substrB7v160006Emm, symObjAddr: 0xAA0, symBinAddr: 0x100002F60, symSize: 0x70 }
  - { offsetInCU: 0xB984, offset: 0xB984, size: 0x8, addend: 0x0, symName: __ZNSt3__113basic_ostreamIcNS_11char_traitsIcEEElsB7v160006EPFRS3_S4_E, symObjAddr: 0xBA0, symBinAddr: 0x100003060, symSize: 0x20 }
  - { offsetInCU: 0xB9BC, offset: 0xB9BC, size: 0x8, addend: 0x0, symName: __ZNSt3__119basic_istringstreamIcNS_11char_traitsIcEENS_9allocatorIcEEED1Ev, symObjAddr: 0xC10, symBinAddr: 0x1000030D0, symSize: 0x70 }
  - { offsetInCU: 0xB9E8, offset: 0xB9E8, size: 0x8, addend: 0x0, symName: __ZN15SeriesOPelicula12capturaDatosEv, symObjAddr: 0xC80, symBinAddr: 0x100003140, symSize: 0x130 }
  - { offsetInCU: 0xBA0E, offset: 0xBA0E, size: 0x8, addend: 0x0, symName: __ZNKSt3__112basic_stringIcNS_11char_traitsIcEENS_9allocatorIcEEE5emptyB7v160006Ev, symObjAddr: 0xE00, symBinAddr: 0x1000032C0, symSize: 0x30 }
  - { offsetInCU: 0xBA33, offset: 0xBA33, size: 0x8, addend: 0x0, symName: __ZNSt3__111char_traitsIcE3eofEv, symObjAddr: 0xE30, symBinAddr: 0x1000032F0, symSize: 0x10 }
  - { offsetInCU: 0xBA47, offset: 0xBA47, size: 0x8, addend: 0x0, symName: __ZN15SeriesOPelicula11mostrarInfoEv, symObjAddr: 0xE40, symBinAddr: 0x100003300, symSize: 0x170 }
  - { offsetInCU: 0xBA6D, offset: 0xBA6D, size: 0x8, addend: 0x0, symName: __ZN5ListaC2Ev, symObjAddr: 0xFB0, symBinAddr: 0x100003470, symSize: 0xC0 }
  - { offsetInCU: 0xBA97, offset: 0xBA97, size: 0x8, addend: 0x0, symName: __ZNSt3__112basic_stringIcNS_11char_traitsIcEENS_9allocatorIcEEEaSB7v160006EPKc, symObjAddr: 0x1070, symBinAddr: 0x100003530, symSize: 0x30 }
  - { offsetInCU: 0xBACB, offset: 0xBACB, size: 0x8, addend: 0x0, symName: __ZN15SeriesOPeliculaD1Ev, symObjAddr: 0x10A0, symBinAddr: 0x100003560, symSize: 0x20 }
  - { offsetInCU: 0xBAF6, offset: 0xBAF6, size: 0x8, addend: 0x0, symName: __ZN5ListaC1Ev, symObjAddr: 0x10C0, symBinAddr: 0x100003580, symSize: 0x20 }
  - { offsetInCU: 0xBB20, offset: 0xBB20, size: 0x8, addend: 0x0, symName: __ZN5Lista16setNombreDeListaENSt3__112basic_stringIcNS0_11char_traitsIcEENS0_9allocatorIcEEEE, symObjAddr: 0x10E0, symBinAddr: 0x1000035A0, symSize: 0x20 }
  - { offsetInCU: 0xBB55, offset: 0xBB55, size: 0x8, addend: 0x0, symName: __ZN5Lista16getNombreDeListaEv, symObjAddr: 0x1100, symBinAddr: 0x1000035C0, symSize: 0x30 }
  - { offsetInCU: 0xBB7B, offset: 0xBB7B, size: 0x8, addend: 0x0, symName: __ZN5Lista12capturaDatosEv, symObjAddr: 0x1130, symBinAddr: 0x1000035F0, symSize: 0x40 }
  - { offsetInCU: 0xBBA1, offset: 0xBBA1, size: 0x8, addend: 0x0, symName: __ZN5Lista20capturaNombreDeListaEv, symObjAddr: 0x1170, symBinAddr: 0x100003630, symSize: 0x30 }
  - { offsetInCU: 0xBBC7, offset: 0xBBC7, size: 0x8, addend: 0x0, symName: __ZN5Lista26mostrarInfoDeSeriePeliculaEv, symObjAddr: 0x11A0, symBinAddr: 0x100003660, symSize: 0x20 }
  - { offsetInCU: 0xBBED, offset: 0xBBED, size: 0x8, addend: 0x0, symName: __ZN5Lista18mostrarSerieResumeEv, symObjAddr: 0x11C0, symBinAddr: 0x100003680, symSize: 0x70 }
  - { offsetInCU: 0xBC13, offset: 0xBC13, size: 0x8, addend: 0x0, symName: __ZN5Lista12mostrarDatosEv, symObjAddr: 0x1230, symBinAddr: 0x1000036F0, symSize: 0x20 }
  - { offsetInCU: 0xBC39, offset: 0xBC39, size: 0x8, addend: 0x0, symName: __ZN5Lista17getTotalCapitulosEv, symObjAddr: 0x1250, symBinAddr: 0x100003710, symSize: 0x20 }
  - { offsetInCU: 0xBC5F, offset: 0xBC5F, size: 0x8, addend: 0x0, symName: __ZN5Lista14getTotalSeriesEv, symObjAddr: 0x1270, symBinAddr: 0x100003730, symSize: 0x20 }
  - { offsetInCU: 0xBC85, offset: 0xBC85, size: 0x8, addend: 0x0, symName: _main, symObjAddr: 0x1290, symBinAddr: 0x100003750, symSize: 0x3A0 }
  - { offsetInCU: 0xBD34, offset: 0xBD34, size: 0x8, addend: 0x0, symName: __ZNSt3__16vectorI5ListaNS_9allocatorIS1_EEEC1B7v160006Ev, symObjAddr: 0x1630, symBinAddr: 0x100003AF0, symSize: 0x20 }
  - { offsetInCU: 0xBD5C, offset: 0xBD5C, size: 0x8, addend: 0x0, symName: __ZNSt3__16vectorI5ListaNS_9allocatorIS1_EEE5beginB7v160006Ev, symObjAddr: 0x1650, symBinAddr: 0x100003B10, symSize: 0x30 }
  - { offsetInCU: 0xBD82, offset: 0xBD82, size: 0x8, addend: 0x0, symName: __ZNSt3__16vectorI5ListaNS_9allocatorIS1_EEE3endB7v160006Ev, symObjAddr: 0x1680, symBinAddr: 0x100003B40, symSize: 0x30 }
  - { offsetInCU: 0xBDA9, offset: 0xBDA9, size: 0x8, addend: 0x0, symName: __ZNKSt3__111__wrap_iterIP5ListaEdeB7v160006Ev, symObjAddr: 0x16E0, symBinAddr: 0x100003BA0, symSize: 0x20 }
  - { offsetInCU: 0xBDCE, offset: 0xBDCE, size: 0x8, addend: 0x0, symName: __ZNSt3__111__wrap_iterIP5ListaEppB7v160006Ev, symObjAddr: 0x1700, symBinAddr: 0x100003BC0, symSize: 0x20 }
  - { offsetInCU: 0xBDF2, offset: 0xBDF2, size: 0x8, addend: 0x0, symName: __ZNSt3__16vectorI5ListaNS_9allocatorIS1_EEE9push_backB7v160006ERKS1_, symObjAddr: 0x1720, symBinAddr: 0x100003BE0, symSize: 0x60 }
  - { offsetInCU: 0xBE28, offset: 0xBE28, size: 0x8, addend: 0x0, symName: __ZN5ListaD1Ev, symObjAddr: 0x1780, symBinAddr: 0x100003C40, symSize: 0x20 }
  - { offsetInCU: 0xBE53, offset: 0xBE53, size: 0x8, addend: 0x0, symName: __ZNSt3__16vectorI5ListaNS_9allocatorIS1_EEED1B7v160006Ev, symObjAddr: 0x17A0, symBinAddr: 0x100003C60, symSize: 0x20 }
  - { offsetInCU: 0xBE7C, offset: 0xBE7C, size: 0x8, addend: 0x0, symName: __ZNSt3__119basic_istringstreamIcNS_11char_traitsIcEENS_9allocatorIcEEED2Ev, symObjAddr: 0x17C0, symBinAddr: 0x100003C80, symSize: 0xA0 }
  - { offsetInCU: 0xBEB4, offset: 0xBEB4, size: 0x8, addend: 0x0, symName: __ZTv0_n24_NSt3__119basic_istringstreamIcNS_11char_traitsIcEENS_9allocatorIcEEED1Ev, symObjAddr: 0x1860, symBinAddr: 0x100003D20, symSize: 0x20 }
  - { offsetInCU: 0xBED0, offset: 0xBED0, size: 0x8, addend: 0x0, symName: __ZNSt3__115basic_stringbufIcNS_11char_traitsIcEENS_9allocatorIcEEED1Ev, symObjAddr: 0x1880, symBinAddr: 0x100003D40, symSize: 0x20 }
  - { offsetInCU: 0xBEFC, offset: 0xBEFC, size: 0x8, addend: 0x0, symName: __ZNSt3__115basic_stringbufIcNS_11char_traitsIcEENS_9allocatorIcEEED2Ev, symObjAddr: 0x18A0, symBinAddr: 0x100003D60, symSize: 0x70 }
  - { offsetInCU: 0xBF28, offset: 0xBF28, size: 0x8, addend: 0x0, symName: __ZN15SeriesOPeliculaD2Ev, symObjAddr: 0x1910, symBinAddr: 0x100003DD0, symSize: 0xE0 }
  - { offsetInCU: 0xBF53, offset: 0xBF53, size: 0x8, addend: 0x0, symName: __ZN5ListaD2Ev, symObjAddr: 0x19F0, symBinAddr: 0x100003EB0, symSize: 0x70 }
  - { offsetInCU: 0xBF7E, offset: 0xBF7E, size: 0x8, addend: 0x0, symName: __ZNSt3__112basic_stringIcNS_11char_traitsIcEENS_9allocatorIcEEEC2B7v160006Ev, symObjAddr: 0x1A60, symBinAddr: 0x100003F20, symSize: 0x40 }
  - { offsetInCU: 0xBFAC, offset: 0xBFAC, size: 0x8, addend: 0x0, symName: __ZNSt3__117__compressed_pairINS_12basic_stringIcNS_11char_traitsIcEENS_9allocatorIcEEE5__repES5_EC1B7v160006INS_18__default_init_tagESA_EEOT_OT0_, symObjAddr: 0x1AA0, symBinAddr: 0x100003F60, symSize: 0x30 }
  - { offsetInCU: 0xC003, offset: 0xC003, size: 0x8, addend: 0x0, symName: __ZNSt3__112basic_stringIcNS_11char_traitsIcEENS_9allocatorIcEEE14__default_initB7v160006Ev, symObjAddr: 0x1AE0, symBinAddr: 0x100003FA0, symSize: 0xC0 }
  - { offsetInCU: 0xC054, offset: 0xC054, size: 0x8, addend: 0x0, symName: __ZNSt3__117__compressed_pairINS_12basic_stringIcNS_11char_traitsIcEENS_9allocatorIcEEE5__repES5_EC2B7v160006INS_18__default_init_tagESA_EEOT_OT0_, symObjAddr: 0x1BA0, symBinAddr: 0x100004060, symSize: 0x30 }
  - { offsetInCU: 0xC0AB, offset: 0xC0AB, size: 0x8, addend: 0x0, symName: __ZNSt3__122__compressed_pair_elemINS_12basic_stringIcNS_11char_traitsIcEENS_9allocatorIcEEE5__repELi0ELb0EEC2B7v160006ENS_18__default_init_tagE, symObjAddr: 0x1BD0, symBinAddr: 0x100004090, symSize: 0x10 }
  - { offsetInCU: 0xC0DF, offset: 0xC0DF, size: 0x8, addend: 0x0, symName: __ZNSt3__122__compressed_pair_elemINS_9allocatorIcEELi1ELb1EEC2B7v160006ENS_18__default_init_tagE, symObjAddr: 0x1BE0, symBinAddr: 0x1000040A0, symSize: 0x20 }
  - { offsetInCU: 0xC113, offset: 0xC113, size: 0x8, addend: 0x0, symName: __ZNSt3__19allocatorIcEC2B7v160006Ev, symObjAddr: 0x1C00, symBinAddr: 0x1000040C0, symSize: 0x20 }
  - { offsetInCU: 0xC13C, offset: 0xC13C, size: 0x8, addend: 0x0, symName: __ZNSt3__116__non_trivial_ifILb1ENS_9allocatorIcEEEC2B7v160006Ev, symObjAddr: 0x1C20, symBinAddr: 0x1000040E0, symSize: 0x10 }
  - { offsetInCU: 0xC165, offset: 0xC165, size: 0x8, addend: 0x0, symName: __ZNSt3__117__compressed_pairINS_12basic_stringIcNS_11char_traitsIcEENS_9allocatorIcEEE5__repES5_E5firstB7v160006Ev, symObjAddr: 0x1C30, symBinAddr: 0x1000040F0, symSize: 0x20 }
  - { offsetInCU: 0xC18A, offset: 0xC18A, size: 0x8, addend: 0x0, symName: __ZNSt3__112basic_stringIcNS_11char_traitsIcEENS_9allocatorIcEEE11__recommendB7v160006Em, symObjAddr: 0x1C60, symBinAddr: 0x100004120, symSize: 0x90 }
  - { offsetInCU: 0xC1BD, offset: 0xC1BD, size: 0x8, addend: 0x0, symName: __ZNSt3__116allocator_traitsINS_9allocatorIcEEE8allocateB7v160006ERS2_m, symObjAddr: 0x1CF0, symBinAddr: 0x1000041B0, symSize: 0x30 }
  - { offsetInCU: 0xC1F0, offset: 0xC1F0, size: 0x8, addend: 0x0, symName: __ZNSt3__112basic_stringIcNS_11char_traitsIcEENS_9allocatorIcEEE7__allocB7v160006Ev, symObjAddr: 0x1D20, symBinAddr: 0x1000041E0, symSize: 0x20 }
  - { offsetInCU: 0xC215, offset: 0xC215, size: 0x8, addend: 0x0, symName: __ZNSt3__112basic_stringIcNS_11char_traitsIcEENS_9allocatorIcEEE16__begin_lifetimeB7v160006EPcm, symObjAddr: 0x1D40, symBinAddr: 0x100004200, symSize: 0x10 }
  - { offsetInCU: 0xC248, offset: 0xC248, size: 0x8, addend: 0x0, symName: __ZNSt3__112basic_stringIcNS_11char_traitsIcEENS_9allocatorIcEEE18__set_long_pointerB7v160006EPc, symObjAddr: 0x1D50, symBinAddr: 0x100004210, symSize: 0x30 }
  - { offsetInCU: 0xC27C, offset: 0xC27C, size: 0x8, addend: 0x0, symName: __ZNSt3__112basic_stringIcNS_11char_traitsIcEENS_9allocatorIcEEE14__set_long_capB7v160006Em, symObjAddr: 0x1D80, symBinAddr: 0x100004240, symSize: 0x70 }
  - { offsetInCU: 0xC2B0, offset: 0xC2B0, size: 0x8, addend: 0x0, symName: __ZNSt3__112basic_stringIcNS_11char_traitsIcEENS_9allocatorIcEEE15__set_long_sizeB7v160006Em, symObjAddr: 0x1DF0, symBinAddr: 0x1000042B0, symSize: 0x30 }
  - { offsetInCU: 0xC2E4, offset: 0xC2E4, size: 0x8, addend: 0x0, symName: __ZNSt3__122__compressed_pair_elemINS_12basic_stringIcNS_11char_traitsIcEENS_9allocatorIcEEE5__repELi0ELb0EE5__getB7v160006Ev, symObjAddr: 0x1E20, symBinAddr: 0x1000042E0, symSize: 0x10 }
  - { offsetInCU: 0xC309, offset: 0xC309, size: 0x8, addend: 0x0, symName: __ZNSt3__112basic_stringIcNS_11char_traitsIcEENS_9allocatorIcEEE10__align_itB7v160006ILm16EEEmm, symObjAddr: 0x1E30, symBinAddr: 0x1000042F0, symSize: 0x20 }
  - { offsetInCU: 0xC337, offset: 0xC337, size: 0x8, addend: 0x0, symName: __ZNSt3__19allocatorIcE8allocateB7v160006Em, symObjAddr: 0x1E50, symBinAddr: 0x100004310, symSize: 0x80 }
  - { offsetInCU: 0xC374, offset: 0xC374, size: 0x8, addend: 0x0, symName: __ZNSt3__116allocator_traitsINS_9allocatorIcEEE8max_sizeB7v160006IS2_vEEmRKS2_, symObjAddr: 0x1ED0, symBinAddr: 0x100004390, symSize: 0x20 }
  - { offsetInCU: 0xC3A2, offset: 0xC3A2, size: 0x8, addend: 0x0, symName: __ZNKSt3__19allocatorIcE8max_sizeB7v160006Ev, symObjAddr: 0x1F50, symBinAddr: 0x100004410, symSize: 0x20 }
  - { offsetInCU: 0xC3C7, offset: 0xC3C7, size: 0x8, addend: 0x0, symName: __ZNSt3__117__compressed_pairINS_12basic_stringIcNS_11char_traitsIcEENS_9allocatorIcEEE5__repES5_E6secondB7v160006Ev, symObjAddr: 0x1F90, symBinAddr: 0x100004450, symSize: 0x20 }
  - { offsetInCU: 0xC3EC, offset: 0xC3EC, size: 0x8, addend: 0x0, symName: __ZNSt3__122__compressed_pair_elemINS_9allocatorIcEELi1ELb1EE5__getB7v160006Ev, symObjAddr: 0x1FB0, symBinAddr: 0x100004470, symSize: 0x10 }
  - { offsetInCU: 0xC411, offset: 0xC411, size: 0x8, addend: 0x0, symName: __ZNSt3__112basic_stringIcNS_11char_traitsIcEENS_9allocatorIcEEE13__get_pointerB7v160006Ev, symObjAddr: 0x1FC0, symBinAddr: 0x100004480, symSize: 0x50 }
  - { offsetInCU: 0xC436, offset: 0xC436, size: 0x8, addend: 0x0, symName: __ZNKSt3__112basic_stringIcNS_11char_traitsIcEENS_9allocatorIcEEE9__is_longB7v160006Ev, symObjAddr: 0x2010, symBinAddr: 0x1000044D0, symSize: 0x60 }
  - { offsetInCU: 0xC45B, offset: 0xC45B, size: 0x8, addend: 0x0, symName: __ZNSt3__112basic_stringIcNS_11char_traitsIcEENS_9allocatorIcEEE18__get_long_pointerB7v160006Ev, symObjAddr: 0x2070, symBinAddr: 0x100004530, symSize: 0x20 }
  - { offsetInCU: 0xC480, offset: 0xC480, size: 0x8, addend: 0x0, symName: __ZNSt3__112basic_stringIcNS_11char_traitsIcEENS_9allocatorIcEEE19__get_short_pointerB7v160006Ev, symObjAddr: 0x2090, symBinAddr: 0x100004550, symSize: 0x30 }
  - { offsetInCU: 0xC4A5, offset: 0xC4A5, size: 0x8, addend: 0x0, symName: __ZNKSt3__117__compressed_pairINS_12basic_stringIcNS_11char_traitsIcEENS_9allocatorIcEEE5__repES5_E5firstB7v160006Ev, symObjAddr: 0x20C0, symBinAddr: 0x100004580, symSize: 0x20 }
  - { offsetInCU: 0xC4CA, offset: 0xC4CA, size: 0x8, addend: 0x0, symName: __ZNKSt3__122__compressed_pair_elemINS_12basic_stringIcNS_11char_traitsIcEENS_9allocatorIcEEE5__repELi0ELb0EE5__getB7v160006Ev, symObjAddr: 0x20E0, symBinAddr: 0x1000045A0, symSize: 0x10 }
  - { offsetInCU: 0xC4EF, offset: 0xC4EF, size: 0x8, addend: 0x0, symName: __ZNSt3__114pointer_traitsIPcE10pointer_toB7v160006ERc, symObjAddr: 0x20F0, symBinAddr: 0x1000045B0, symSize: 0x10 }
  - { offsetInCU: 0xC512, offset: 0xC512, size: 0x8, addend: 0x0, symName: __ZNSt3__111char_traitsIcE6assignERcRKc, symObjAddr: 0x2110, symBinAddr: 0x1000045D0, symSize: 0x20 }
  - { offsetInCU: 0xC543, offset: 0xC543, size: 0x8, addend: 0x0, symName: __ZNSt3__112basic_stringIcNS_11char_traitsIcEENS_9allocatorIcEEE16__set_short_sizeB7v160006Em, symObjAddr: 0x2130, symBinAddr: 0x1000045F0, symSize: 0x50 }
  - { offsetInCU: 0xC577, offset: 0xC577, size: 0x8, addend: 0x0, symName: __ZNSt3__19basic_iosIcNS_11char_traitsIcEEEC2B7v160006Ev, symObjAddr: 0x2180, symBinAddr: 0x100004640, symSize: 0x40 }
  - { offsetInCU: 0xC5A0, offset: 0xC5A0, size: 0x8, addend: 0x0, symName: __ZNSt3__113basic_istreamIcNS_11char_traitsIcEEEC2B7v160006EPNS_15basic_streambufIcS2_EE, symObjAddr: 0x21C0, symBinAddr: 0x100004680, symSize: 0x50 }
  - { offsetInCU: 0xC5E3, offset: 0xC5E3, size: 0x8, addend: 0x0, symName: __ZNSt3__115basic_stringbufIcNS_11char_traitsIcEENS_9allocatorIcEEEC1B7v160006ERKNS_12basic_stringIcS2_S4_EEj, symObjAddr: 0x2210, symBinAddr: 0x1000046D0, symSize: 0x30 }
  - { offsetInCU: 0xC628, offset: 0xC628, size: 0x8, addend: 0x0, symName: __ZNSt3__18ios_baseC2B7v160006Ev, symObjAddr: 0x2240, symBinAddr: 0x100004700, symSize: 0x20 }
  - { offsetInCU: 0xC650, offset: 0xC650, size: 0x8, addend: 0x0, symName: __ZNSt3__19basic_iosIcNS_11char_traitsIcEEE4initB7v160006EPNS_15basic_streambufIcS2_EE, symObjAddr: 0x2260, symBinAddr: 0x100004720, symSize: 0x50 }
  - { offsetInCU: 0xC686, offset: 0xC686, size: 0x8, addend: 0x0, symName: __ZNSt3__115basic_stringbufIcNS_11char_traitsIcEENS_9allocatorIcEEEC2B7v160006ERKNS_12basic_stringIcS2_S4_EEj, symObjAddr: 0x22B0, symBinAddr: 0x100004770, symSize: 0xD0 }
  - { offsetInCU: 0xC6CB, offset: 0xC6CB, size: 0x8, addend: 0x0, symName: __ZNKSt3__112basic_stringIcNS_11char_traitsIcEENS_9allocatorIcEEE13get_allocatorB7v160006Ev, symObjAddr: 0x2380, symBinAddr: 0x100004840, symSize: 0x20 }
  - { offsetInCU: 0xC6F0, offset: 0xC6F0, size: 0x8, addend: 0x0, symName: __ZNSt3__112basic_stringIcNS_11char_traitsIcEENS_9allocatorIcEEEC1B7v160006ERKS4_, symObjAddr: 0x23A0, symBinAddr: 0x100004860, symSize: 0x30 }
  - { offsetInCU: 0xC728, offset: 0xC728, size: 0x8, addend: 0x0, symName: __ZNKSt3__112basic_stringIcNS_11char_traitsIcEENS_9allocatorIcEEE7__allocB7v160006Ev, symObjAddr: 0x23D0, symBinAddr: 0x100004890, symSize: 0x20 }
  - { offsetInCU: 0xC74D, offset: 0xC74D, size: 0x8, addend: 0x0, symName: __ZNKSt3__117__compressed_pairINS_12basic_stringIcNS_11char_traitsIcEENS_9allocatorIcEEE5__repES5_E6secondB7v160006Ev, symObjAddr: 0x23F0, symBinAddr: 0x1000048B0, symSize: 0x20 }
  - { offsetInCU: 0xC772, offset: 0xC772, size: 0x8, addend: 0x0, symName: __ZNKSt3__122__compressed_pair_elemINS_9allocatorIcEELi1ELb1EE5__getB7v160006Ev, symObjAddr: 0x2410, symBinAddr: 0x1000048D0, symSize: 0x10 }
  - { offsetInCU: 0xC797, offset: 0xC797, size: 0x8, addend: 0x0, symName: __ZNSt3__112basic_stringIcNS_11char_traitsIcEENS_9allocatorIcEEEC2B7v160006ERKS4_, symObjAddr: 0x2420, symBinAddr: 0x1000048E0, symSize: 0x40 }
  - { offsetInCU: 0xC7CF, offset: 0xC7CF, size: 0x8, addend: 0x0, symName: __ZNSt3__117__compressed_pairINS_12basic_stringIcNS_11char_traitsIcEENS_9allocatorIcEEE5__repES5_EC1B7v160006INS_18__default_init_tagERKS5_EEOT_OT0_, symObjAddr: 0x2460, symBinAddr: 0x100004920, symSize: 0x30 }
  - { offsetInCU: 0xC826, offset: 0xC826, size: 0x8, addend: 0x0, symName: __ZNSt3__117__compressed_pairINS_12basic_stringIcNS_11char_traitsIcEENS_9allocatorIcEEE5__repES5_EC2B7v160006INS_18__default_init_tagERKS5_EEOT_OT0_, symObjAddr: 0x2490, symBinAddr: 0x100004950, symSize: 0x40 }
  - { offsetInCU: 0xC87D, offset: 0xC87D, size: 0x8, addend: 0x0, symName: __ZNSt3__122__compressed_pair_elemINS_9allocatorIcEELi1ELb1EEC2B7v160006IRKS2_vEEOT_, symObjAddr: 0x24D0, symBinAddr: 0x100004990, symSize: 0x10 }
  - { offsetInCU: 0xC8DC, offset: 0xC8DC, size: 0x8, addend: 0x0, symName: __ZNKSt3__113basic_istreamIcNS_11char_traitsIcEEE6sentrycvbB7v160006Ev, symObjAddr: 0x24E0, symBinAddr: 0x1000049A0, symSize: 0x20 }
  - { offsetInCU: 0xC900, offset: 0xC900, size: 0x8, addend: 0x0, symName: __ZNKSt3__19basic_iosIcNS_11char_traitsIcEEE5rdbufB7v160006Ev, symObjAddr: 0x2500, symBinAddr: 0x1000049C0, symSize: 0x20 }
  - { offsetInCU: 0xC927, offset: 0xC927, size: 0x8, addend: 0x0, symName: __ZNSt3__115basic_streambufIcNS_11char_traitsIcEEE6sbumpcB7v160006Ev, symObjAddr: 0x2520, symBinAddr: 0x1000049E0, symSize: 0x60 }
  - { offsetInCU: 0xC94C, offset: 0xC94C, size: 0x8, addend: 0x0, symName: __ZNSt3__111char_traitsIcE11eq_int_typeEii, symObjAddr: 0x2580, symBinAddr: 0x100004A40, symSize: 0x20 }
  - { offsetInCU: 0xC97D, offset: 0xC97D, size: 0x8, addend: 0x0, symName: __ZNSt3__111char_traitsIcE12to_char_typeEi, symObjAddr: 0x25A0, symBinAddr: 0x100004A60, symSize: 0x10 }
  - { offsetInCU: 0xC9A0, offset: 0xC9A0, size: 0x8, addend: 0x0, symName: __ZNSt3__111char_traitsIcE2eqEcc, symObjAddr: 0x25B0, symBinAddr: 0x100004A70, symSize: 0x30 }
  - { offsetInCU: 0xC9D1, offset: 0xC9D1, size: 0x8, addend: 0x0, symName: __ZNKSt3__112basic_stringIcNS_11char_traitsIcEENS_9allocatorIcEEE4sizeB7v160006Ev, symObjAddr: 0x25E0, symBinAddr: 0x100004AA0, symSize: 0x50 }
  - { offsetInCU: 0xC9F6, offset: 0xC9F6, size: 0x8, addend: 0x0, symName: __ZNKSt3__112basic_stringIcNS_11char_traitsIcEENS_9allocatorIcEEE8max_sizeB7v160006Ev, symObjAddr: 0x2630, symBinAddr: 0x100004AF0, symSize: 0xA0 }
  - { offsetInCU: 0xCA47, offset: 0xCA47, size: 0x8, addend: 0x0, symName: __ZNSt3__18ios_base18__setstate_nothrowB7v160006Ej, symObjAddr: 0x26D0, symBinAddr: 0x100004B90, symSize: 0x50 }
  - { offsetInCU: 0xCA7B, offset: 0xCA7B, size: 0x8, addend: 0x0, symName: __ZNKSt3__19basic_iosIcNS_11char_traitsIcEEE10exceptionsB7v160006Ev, symObjAddr: 0x2720, symBinAddr: 0x100004BE0, symSize: 0x20 }
  - { offsetInCU: 0xCAA0, offset: 0xCAA0, size: 0x8, addend: 0x0, symName: __ZNSt3__19basic_iosIcNS_11char_traitsIcEEE8setstateB7v160006Ej, symObjAddr: 0x2740, symBinAddr: 0x100004C00, symSize: 0x30 }
  - { offsetInCU: 0xCAD4, offset: 0xCAD4, size: 0x8, addend: 0x0, symName: __ZNKSt3__18ios_base5rdbufB7v160006Ev, symObjAddr: 0x2770, symBinAddr: 0x100004C30, symSize: 0x20 }
  - { offsetInCU: 0xCAF9, offset: 0xCAF9, size: 0x8, addend: 0x0, symName: __ZNSt3__111char_traitsIcE11to_int_typeEc, symObjAddr: 0x2790, symBinAddr: 0x100004C50, symSize: 0x10 }
  - { offsetInCU: 0xCB1C, offset: 0xCB1C, size: 0x8, addend: 0x0, symName: __ZNKSt3__112basic_stringIcNS_11char_traitsIcEENS_9allocatorIcEEE15__get_long_sizeB7v160006Ev, symObjAddr: 0x27A0, symBinAddr: 0x100004C60, symSize: 0x20 }
  - { offsetInCU: 0xCB41, offset: 0xCB41, size: 0x8, addend: 0x0, symName: __ZNKSt3__112basic_stringIcNS_11char_traitsIcEENS_9allocatorIcEEE16__get_short_sizeB7v160006Ev, symObjAddr: 0x27C0, symBinAddr: 0x100004C80, symSize: 0x30 }
  - { offsetInCU: 0xCB66, offset: 0xCB66, size: 0x8, addend: 0x0, symName: __ZNSt3__114numeric_limitsImE3maxB7v160006Ev, symObjAddr: 0x27F0, symBinAddr: 0x100004CB0, symSize: 0x10 }
  - { offsetInCU: 0xCB7A, offset: 0xCB7A, size: 0x8, addend: 0x0, symName: __ZNSt3__123__libcpp_numeric_limitsImLb1EE3maxB7v160006Ev, symObjAddr: 0x2800, symBinAddr: 0x100004CC0, symSize: 0x10 }
  - { offsetInCU: 0xCB8D, offset: 0xCB8D, size: 0x8, addend: 0x0, symName: __ZNKSt3__18ios_base10exceptionsB7v160006Ev, symObjAddr: 0x2810, symBinAddr: 0x100004CD0, symSize: 0x20 }
  - { offsetInCU: 0xCBB3, offset: 0xCBB3, size: 0x8, addend: 0x0, symName: __ZNSt3__18ios_base8setstateB7v160006Ej, symObjAddr: 0x2830, symBinAddr: 0x100004CF0, symSize: 0x30 }
  - { offsetInCU: 0xCBE9, offset: 0xCBE9, size: 0x8, addend: 0x0, symName: __ZNKSt3__19basic_iosIcNS_11char_traitsIcEEE4failB7v160006Ev, symObjAddr: 0x2860, symBinAddr: 0x100004D20, symSize: 0x20 }
  - { offsetInCU: 0xCC0D, offset: 0xCC0D, size: 0x8, addend: 0x0, symName: __ZNKSt3__18ios_base4failB7v160006Ev, symObjAddr: 0x2880, symBinAddr: 0x100004D40, symSize: 0x20 }
  - { offsetInCU: 0xCC34, offset: 0xCC34, size: 0x8, addend: 0x0, symName: __ZNKSt3__112basic_stringIcNS_11char_traitsIcEENS_9allocatorIcEEE4dataB7v160006Ev, symObjAddr: 0x2950, symBinAddr: 0x100004E10, symSize: 0x30 }
  - { offsetInCU: 0xCC59, offset: 0xCC59, size: 0x8, addend: 0x0, symName: __ZNKSt3__112basic_stringIcNS_11char_traitsIcEENS_9allocatorIcEEE13__get_pointerB7v160006Ev, symObjAddr: 0x2990, symBinAddr: 0x100004E50, symSize: 0x50 }
  - { offsetInCU: 0xCC7E, offset: 0xCC7E, size: 0x8, addend: 0x0, symName: __ZNKSt3__112basic_stringIcNS_11char_traitsIcEENS_9allocatorIcEEE18__get_long_pointerB7v160006Ev, symObjAddr: 0x29E0, symBinAddr: 0x100004EA0, symSize: 0x20 }
  - { offsetInCU: 0xCCA3, offset: 0xCCA3, size: 0x8, addend: 0x0, symName: __ZNKSt3__112basic_stringIcNS_11char_traitsIcEENS_9allocatorIcEEE19__get_short_pointerB7v160006Ev, symObjAddr: 0x2A00, symBinAddr: 0x100004EC0, symSize: 0x30 }
  - { offsetInCU: 0xCCC8, offset: 0xCCC8, size: 0x8, addend: 0x0, symName: __ZNSt3__114pointer_traitsIPKcE10pointer_toB7v160006ERS1_, symObjAddr: 0x2A30, symBinAddr: 0x100004EF0, symSize: 0x10 }
  - { offsetInCU: 0xCCEB, offset: 0xCCEB, size: 0x8, addend: 0x0, symName: __ZNSt3__19allocatorIcEC1B7v160006Ev, symObjAddr: 0x2AF0, symBinAddr: 0x100004FB0, symSize: 0x20 }
  - { offsetInCU: 0xCD14, offset: 0xCD14, size: 0x8, addend: 0x0, symName: __ZNSt3__111char_traitsIcE6lengthEPKc, symObjAddr: 0x2D00, symBinAddr: 0x1000051C0, symSize: 0x40 }
  - { offsetInCU: 0xCD55, offset: 0xCD55, size: 0x8, addend: 0x0, symName: __ZNKSt3__113basic_ostreamIcNS_11char_traitsIcEEE6sentrycvbB7v160006Ev, symObjAddr: 0x2D40, symBinAddr: 0x100005200, symSize: 0x20 }
  - { offsetInCU: 0xCD7A, offset: 0xCD7A, size: 0x8, addend: 0x0, symName: __ZNSt3__119ostreambuf_iteratorIcNS_11char_traitsIcEEEC1B7v160006ERNS_13basic_ostreamIcS2_EE, symObjAddr: 0x2F80, symBinAddr: 0x100005440, symSize: 0x30 }
  - { offsetInCU: 0xCDB0, offset: 0xCDB0, size: 0x8, addend: 0x0, symName: __ZNKSt3__18ios_base5flagsB7v160006Ev, symObjAddr: 0x2FB0, symBinAddr: 0x100005470, symSize: 0x20 }
  - { offsetInCU: 0xCDD6, offset: 0xCDD6, size: 0x8, addend: 0x0, symName: __ZNKSt3__19basic_iosIcNS_11char_traitsIcEEE4fillB7v160006Ev, symObjAddr: 0x2FD0, symBinAddr: 0x100005490, symSize: 0x70 }
  - { offsetInCU: 0xCDFD, offset: 0xCDFD, size: 0x8, addend: 0x0, symName: __ZNKSt3__119ostreambuf_iteratorIcNS_11char_traitsIcEEE6failedB7v160006Ev, symObjAddr: 0x3040, symBinAddr: 0x100005500, symSize: 0x20 }
  - { offsetInCU: 0xCE21, offset: 0xCE21, size: 0x8, addend: 0x0, symName: __ZNKSt3__18ios_base5widthB7v160006Ev, symObjAddr: 0x3060, symBinAddr: 0x100005520, symSize: 0x20 }
  - { offsetInCU: 0xCE48, offset: 0xCE48, size: 0x8, addend: 0x0, symName: __ZNSt3__115basic_streambufIcNS_11char_traitsIcEEE5sputnB7v160006EPKcl, symObjAddr: 0x3080, symBinAddr: 0x100005540, symSize: 0x30 }
  - { offsetInCU: 0xCE89, offset: 0xCE89, size: 0x8, addend: 0x0, symName: __ZNSt3__112basic_stringIcNS_11char_traitsIcEENS_9allocatorIcEEEC1B7v160006Emc, symObjAddr: 0x30B0, symBinAddr: 0x100005570, symSize: 0x30 }
  - { offsetInCU: 0xCECF, offset: 0xCECF, size: 0x8, addend: 0x0, symName: __ZNSt3__18ios_base5widthB7v160006El, symObjAddr: 0x30E0, symBinAddr: 0x1000055A0, symSize: 0x30 }
  - { offsetInCU: 0xCF14, offset: 0xCF14, size: 0x8, addend: 0x0, symName: __ZNSt3__112basic_stringIcNS_11char_traitsIcEENS_9allocatorIcEEEC2B7v160006Emc, symObjAddr: 0x3110, symBinAddr: 0x1000055D0, symSize: 0x50 }
  - { offsetInCU: 0xCF5B, offset: 0xCF5B, size: 0x8, addend: 0x0, symName: __ZNSt3__119ostreambuf_iteratorIcNS_11char_traitsIcEEEC2B7v160006ERNS_13basic_ostreamIcS2_EE, symObjAddr: 0x3160, symBinAddr: 0x100005620, symSize: 0x60 }
  - { offsetInCU: 0xCF91, offset: 0xCF91, size: 0x8, addend: 0x0, symName: __ZNKSt3__19basic_iosIcNS_11char_traitsIcEEE5widenB7v160006Ec, symObjAddr: 0x31C0, symBinAddr: 0x100005680, symSize: 0x90 }
  - { offsetInCU: 0xCFFE, offset: 0xCFFE, size: 0x8, addend: 0x0, symName: __ZNKSt3__15ctypeIcE5widenB7v160006Ec, symObjAddr: 0x3280, symBinAddr: 0x100005740, symSize: 0x30 }
  - { offsetInCU: 0xD032, offset: 0xD032, size: 0x8, addend: 0x0, symName: __ZNSt3__16vectorI5ListaNS_9allocatorIS1_EEEC2B7v160006Ev, symObjAddr: 0x32D0, symBinAddr: 0x100005790, symSize: 0x50 }
  - { offsetInCU: 0xD060, offset: 0xD060, size: 0x8, addend: 0x0, symName: __ZNSt3__117__compressed_pairIP5ListaNS_9allocatorIS1_EEEC1B7v160006IDnNS_18__default_init_tagEEEOT_OT0_, symObjAddr: 0x3320, symBinAddr: 0x1000057E0, symSize: 0x30 }
  - { offsetInCU: 0xD0B7, offset: 0xD0B7, size: 0x8, addend: 0x0, symName: __ZNSt3__117__compressed_pairIP5ListaNS_9allocatorIS1_EEEC2B7v160006IDnNS_18__default_init_tagEEEOT_OT0_, symObjAddr: 0x3360, symBinAddr: 0x100005820, symSize: 0x40 }
  - { offsetInCU: 0xD10E, offset: 0xD10E, size: 0x8, addend: 0x0, symName: __ZNSt3__122__compressed_pair_elemIP5ListaLi0ELb0EEC2B7v160006IDnvEEOT_, symObjAddr: 0x33A0, symBinAddr: 0x100005860, symSize: 0x20 }
  - { offsetInCU: 0xD14F, offset: 0xD14F, size: 0x8, addend: 0x0, symName: __ZNSt3__122__compressed_pair_elemINS_9allocatorI5ListaEELi1ELb1EEC2B7v160006ENS_18__default_init_tagE, symObjAddr: 0x33C0, symBinAddr: 0x100005880, symSize: 0x20 }
  - { offsetInCU: 0xD183, offset: 0xD183, size: 0x8, addend: 0x0, symName: __ZNSt3__19allocatorI5ListaEC2B7v160006Ev, symObjAddr: 0x33E0, symBinAddr: 0x1000058A0, symSize: 0x20 }
  - { offsetInCU: 0xD1AC, offset: 0xD1AC, size: 0x8, addend: 0x0, symName: __ZNSt3__116__non_trivial_ifILb1ENS_9allocatorI5ListaEEEC2B7v160006Ev, symObjAddr: 0x3400, symBinAddr: 0x1000058C0, symSize: 0x10 }
  - { offsetInCU: 0xD1D5, offset: 0xD1D5, size: 0x8, addend: 0x0, symName: __ZNSt3__16vectorI5ListaNS_9allocatorIS1_EEED2B7v160006Ev, symObjAddr: 0x3410, symBinAddr: 0x1000058D0, symSize: 0x30 }
  - { offsetInCU: 0xD1FE, offset: 0xD1FE, size: 0x8, addend: 0x0, symName: __ZNSt3__16vectorI5ListaNS_9allocatorIS1_EEE16__destroy_vectorC1ERS4_, symObjAddr: 0x3440, symBinAddr: 0x100005900, symSize: 0x30 }
  - { offsetInCU: 0xD236, offset: 0xD236, size: 0x8, addend: 0x0, symName: __ZNSt3__16vectorI5ListaNS_9allocatorIS1_EEE16__destroy_vectorclB7v160006Ev, symObjAddr: 0x3470, symBinAddr: 0x100005930, symSize: 0x90 }
  - { offsetInCU: 0xD25B, offset: 0xD25B, size: 0x8, addend: 0x0, symName: __ZNSt3__16vectorI5ListaNS_9allocatorIS1_EEE16__destroy_vectorC2ERS4_, symObjAddr: 0x3500, symBinAddr: 0x1000059C0, symSize: 0x20 }
  - { offsetInCU: 0xD293, offset: 0xD293, size: 0x8, addend: 0x0, symName: __ZNKSt3__16vectorI5ListaNS_9allocatorIS1_EEE17__annotate_deleteB7v160006Ev, symObjAddr: 0x3520, symBinAddr: 0x1000059E0, symSize: 0xC0 }
  - { offsetInCU: 0xD2B8, offset: 0xD2B8, size: 0x8, addend: 0x0, symName: __ZNSt3__16vectorI5ListaNS_9allocatorIS1_EEE7__clearB7v160006Ev, symObjAddr: 0x35F0, symBinAddr: 0x100005AB0, symSize: 0x20 }
  - { offsetInCU: 0xD2DD, offset: 0xD2DD, size: 0x8, addend: 0x0, symName: __ZNSt3__116allocator_traitsINS_9allocatorI5ListaEEE10deallocateB7v160006ERS3_PS2_m, symObjAddr: 0x3610, symBinAddr: 0x100005AD0, symSize: 0x30 }
  - { offsetInCU: 0xD31F, offset: 0xD31F, size: 0x8, addend: 0x0, symName: __ZNSt3__16vectorI5ListaNS_9allocatorIS1_EEE7__allocB7v160006Ev, symObjAddr: 0x3640, symBinAddr: 0x100005B00, symSize: 0x20 }
  - { offsetInCU: 0xD344, offset: 0xD344, size: 0x8, addend: 0x0, symName: __ZNKSt3__16vectorI5ListaNS_9allocatorIS1_EEE8capacityB7v160006Ev, symObjAddr: 0x3660, symBinAddr: 0x100005B20, symSize: 0x40 }
  - { offsetInCU: 0xD369, offset: 0xD369, size: 0x8, addend: 0x0, symName: __ZNKSt3__16vectorI5ListaNS_9allocatorIS1_EEE31__annotate_contiguous_containerB7v160006EPKvS6_S6_S6_, symObjAddr: 0x36A0, symBinAddr: 0x100005B60, symSize: 0x20 }
  - { offsetInCU: 0xD3BE, offset: 0xD3BE, size: 0x8, addend: 0x0, symName: __ZNKSt3__16vectorI5ListaNS_9allocatorIS1_EEE4dataB7v160006Ev, symObjAddr: 0x36C0, symBinAddr: 0x100005B80, symSize: 0x20 }
  - { offsetInCU: 0xD3E3, offset: 0xD3E3, size: 0x8, addend: 0x0, symName: __ZNKSt3__16vectorI5ListaNS_9allocatorIS1_EEE4sizeB7v160006Ev, symObjAddr: 0x36E0, symBinAddr: 0x100005BA0, symSize: 0x30 }
  - { offsetInCU: 0xD408, offset: 0xD408, size: 0x8, addend: 0x0, symName: __ZNSt3__16vectorI5ListaNS_9allocatorIS1_EEE22__base_destruct_at_endB7v160006EPS1_, symObjAddr: 0x3720, symBinAddr: 0x100005BE0, symSize: 0x90 }
  - { offsetInCU: 0xD44B, offset: 0xD44B, size: 0x8, addend: 0x0, symName: __ZNSt3__116allocator_traitsINS_9allocatorI5ListaEEE7destroyB7v160006IS2_vEEvRS3_PT_, symObjAddr: 0x37B0, symBinAddr: 0x100005C70, symSize: 0x30 }
  - { offsetInCU: 0xD488, offset: 0xD488, size: 0x8, addend: 0x0, symName: __ZNSt3__19allocatorI5ListaE7destroyB7v160006EPS1_, symObjAddr: 0x37E0, symBinAddr: 0x100005CA0, symSize: 0x20 }
  - { offsetInCU: 0xD4BB, offset: 0xD4BB, size: 0x8, addend: 0x0, symName: __ZNSt3__19allocatorI5ListaE10deallocateB7v160006EPS1_m, symObjAddr: 0x3800, symBinAddr: 0x100005CC0, symSize: 0x80 }
  - { offsetInCU: 0xD4FC, offset: 0xD4FC, size: 0x8, addend: 0x0, symName: __ZNSt3__117__compressed_pairIP5ListaNS_9allocatorIS1_EEE6secondB7v160006Ev, symObjAddr: 0x38F0, symBinAddr: 0x100005DB0, symSize: 0x20 }
  - { offsetInCU: 0xD521, offset: 0xD521, size: 0x8, addend: 0x0, symName: __ZNSt3__122__compressed_pair_elemINS_9allocatorI5ListaEELi1ELb1EE5__getB7v160006Ev, symObjAddr: 0x3910, symBinAddr: 0x100005DD0, symSize: 0x10 }
  - { offsetInCU: 0xD546, offset: 0xD546, size: 0x8, addend: 0x0, symName: __ZNKSt3__16vectorI5ListaNS_9allocatorIS1_EEE9__end_capB7v160006Ev, symObjAddr: 0x3920, symBinAddr: 0x100005DE0, symSize: 0x20 }
  - { offsetInCU: 0xD56B, offset: 0xD56B, size: 0x8, addend: 0x0, symName: __ZNKSt3__117__compressed_pairIP5ListaNS_9allocatorIS1_EEE5firstB7v160006Ev, symObjAddr: 0x3940, symBinAddr: 0x100005E00, symSize: 0x20 }
  - { offsetInCU: 0xD590, offset: 0xD590, size: 0x8, addend: 0x0, symName: __ZNKSt3__122__compressed_pair_elemIP5ListaLi0ELb0EE5__getB7v160006Ev, symObjAddr: 0x3960, symBinAddr: 0x100005E20, symSize: 0x10 }
  - { offsetInCU: 0xD5B5, offset: 0xD5B5, size: 0x8, addend: 0x0, symName: __ZNSt3__16vectorI5ListaNS_9allocatorIS1_EEE11__make_iterB7v160006EPS1_, symObjAddr: 0x3970, symBinAddr: 0x100005E30, symSize: 0x30 }
  - { offsetInCU: 0xD5E9, offset: 0xD5E9, size: 0x8, addend: 0x0, symName: __ZNSt3__111__wrap_iterIP5ListaEC1B7v160006EPKvS2_, symObjAddr: 0x39A0, symBinAddr: 0x100005E60, symSize: 0x30 }
  - { offsetInCU: 0xD62E, offset: 0xD62E, size: 0x8, addend: 0x0, symName: __ZNSt3__111__wrap_iterIP5ListaEC2B7v160006EPKvS2_, symObjAddr: 0x39D0, symBinAddr: 0x100005E90, symSize: 0x20 }
  - { offsetInCU: 0xD673, offset: 0xD673, size: 0x8, addend: 0x0, symName: __ZNKSt3__111__wrap_iterIP5ListaE4baseB7v160006Ev, symObjAddr: 0x3A30, symBinAddr: 0x100005EF0, symSize: 0x20 }
  - { offsetInCU: 0xD698, offset: 0xD698, size: 0x8, addend: 0x0, symName: __ZNSt3__16vectorI5ListaNS_9allocatorIS1_EEE9__end_capB7v160006Ev, symObjAddr: 0x3A50, symBinAddr: 0x100005F10, symSize: 0x20 }
  - { offsetInCU: 0xD6BD, offset: 0xD6BD, size: 0x8, addend: 0x0, symName: __ZNSt3__16vectorI5ListaNS_9allocatorIS1_EEE22__construct_one_at_endB7v160006IJRKS1_EEEvDpOT_, symObjAddr: 0x3A70, symBinAddr: 0x100005F30, symSize: 0xA0 }
  - { offsetInCU: 0xD70A, offset: 0xD70A, size: 0x8, addend: 0x0, symName: __ZNSt3__16vectorI5ListaNS_9allocatorIS1_EEE21__push_back_slow_pathIRKS1_EEvOT_, symObjAddr: 0x3B10, symBinAddr: 0x100005FD0, symSize: 0xE0 }
  - { offsetInCU: 0xD767, offset: 0xD767, size: 0x8, addend: 0x0, symName: __ZNSt3__117__compressed_pairIP5ListaNS_9allocatorIS1_EEE5firstB7v160006Ev, symObjAddr: 0x3BF0, symBinAddr: 0x1000060B0, symSize: 0x20 }
  - { offsetInCU: 0xD78C, offset: 0xD78C, size: 0x8, addend: 0x0, symName: __ZNSt3__122__compressed_pair_elemIP5ListaLi0ELb0EE5__getB7v160006Ev, symObjAddr: 0x3C10, symBinAddr: 0x1000060D0, symSize: 0x10 }
  - { offsetInCU: 0xD7CA, offset: 0xD7CA, size: 0x8, addend: 0x0, symName: __ZNSt3__16vectorI5ListaNS_9allocatorIS1_EEE21_ConstructTransactionC1B7v160006ERS4_m, symObjAddr: 0x3C20, symBinAddr: 0x1000060E0, symSize: 0x30 }
  - { offsetInCU: 0xD811, offset: 0xD811, size: 0x8, addend: 0x0, symName: __ZNSt3__116allocator_traitsINS_9allocatorI5ListaEEE9constructB7v160006IS2_JRKS2_EvEEvRS3_PT_DpOT0_, symObjAddr: 0x3C50, symBinAddr: 0x100006110, symSize: 0x30 }
  - { offsetInCU: 0xD868, offset: 0xD868, size: 0x8, addend: 0x0, symName: __ZNSt3__16vectorI5ListaNS_9allocatorIS1_EEE21_ConstructTransactionD1B7v160006Ev, symObjAddr: 0x3C80, symBinAddr: 0x100006140, symSize: 0x20 }
  - { offsetInCU: 0xD891, offset: 0xD891, size: 0x8, addend: 0x0, symName: __ZNSt3__16vectorI5ListaNS_9allocatorIS1_EEE21_ConstructTransactionC2B7v160006ERS4_m, symObjAddr: 0x3CA0, symBinAddr: 0x100006160, symSize: 0x40 }
  - { offsetInCU: 0xD8D8, offset: 0xD8D8, size: 0x8, addend: 0x0, symName: __ZNSt3__19allocatorI5ListaE9constructB7v160006IS1_JRKS1_EEEvPT_DpOT0_, symObjAddr: 0x3CE0, symBinAddr: 0x1000061A0, symSize: 0x30 }
  - { offsetInCU: 0xD92D, offset: 0xD92D, size: 0x8, addend: 0x0, symName: __ZN5ListaC1ERKS_, symObjAddr: 0x3D10, symBinAddr: 0x1000061D0, symSize: 0x30 }
  - { offsetInCU: 0xD961, offset: 0xD961, size: 0x8, addend: 0x0, symName: __ZN5ListaC2ERKS_, symObjAddr: 0x3D40, symBinAddr: 0x100006200, symSize: 0x90 }
  - { offsetInCU: 0xD99F, offset: 0xD99F, size: 0x8, addend: 0x0, symName: __ZN15SeriesOPeliculaC1ERKS_, symObjAddr: 0x3DD0, symBinAddr: 0x100006290, symSize: 0x30 }
  - { offsetInCU: 0xD9D3, offset: 0xD9D3, size: 0x8, addend: 0x0, symName: __ZN15SeriesOPeliculaC2ERKS_, symObjAddr: 0x3E00, symBinAddr: 0x1000062C0, symSize: 0x110 }
  - { offsetInCU: 0xDA07, offset: 0xDA07, size: 0x8, addend: 0x0, symName: __ZNSt3__16vectorI5ListaNS_9allocatorIS1_EEE21_ConstructTransactionD2B7v160006Ev, symObjAddr: 0x3F10, symBinAddr: 0x1000063D0, symSize: 0x20 }
  - { offsetInCU: 0xDA2F, offset: 0xDA2F, size: 0x8, addend: 0x0, symName: __ZNKSt3__16vectorI5ListaNS_9allocatorIS1_EEE11__recommendB7v160006Em, symObjAddr: 0x3F30, symBinAddr: 0x1000063F0, symSize: 0xA0 }
  - { offsetInCU: 0xDA83, offset: 0xDA83, size: 0x8, addend: 0x0, symName: __ZNSt3__114__split_bufferI5ListaRNS_9allocatorIS1_EEEC1EmmS4_, symObjAddr: 0x3FD0, symBinAddr: 0x100006490, symSize: 0x40 }
  - { offsetInCU: 0xDAD8, offset: 0xDAD8, size: 0x8, addend: 0x0, symName: __ZNSt3__114__split_bufferI5ListaRNS_9allocatorIS1_EEED1Ev, symObjAddr: 0x4140, symBinAddr: 0x100006600, symSize: 0x20 }
  - { offsetInCU: 0xDB02, offset: 0xDB02, size: 0x8, addend: 0x0, symName: __ZNKSt3__16vectorI5ListaNS_9allocatorIS1_EEE8max_sizeEv, symObjAddr: 0x4160, symBinAddr: 0x100006620, symSize: 0x70 }
  - { offsetInCU: 0xDB29, offset: 0xDB29, size: 0x8, addend: 0x0, symName: __ZNKSt3__16vectorI5ListaNS_9allocatorIS1_EEE20__throw_length_errorB7v160006Ev, symObjAddr: 0x41D0, symBinAddr: 0x100006690, symSize: 0x20 }
  - { offsetInCU: 0xDB58, offset: 0xDB58, size: 0x8, addend: 0x0, symName: __ZNSt3__116allocator_traitsINS_9allocatorI5ListaEEE8max_sizeB7v160006IS3_vEEmRKS3_, symObjAddr: 0x4250, symBinAddr: 0x100006710, symSize: 0x20 }
  - { offsetInCU: 0xDB86, offset: 0xDB86, size: 0x8, addend: 0x0, symName: __ZNKSt3__16vectorI5ListaNS_9allocatorIS1_EEE7__allocB7v160006Ev, symObjAddr: 0x4270, symBinAddr: 0x100006730, symSize: 0x20 }
  - { offsetInCU: 0xDBAB, offset: 0xDBAB, size: 0x8, addend: 0x0, symName: __ZNSt3__114numeric_limitsIlE3maxB7v160006Ev, symObjAddr: 0x4290, symBinAddr: 0x100006750, symSize: 0x10 }
  - { offsetInCU: 0xDBD3, offset: 0xDBD3, size: 0x8, addend: 0x0, symName: __ZNKSt3__16__lessImmEclB7v160006ERKmS3_, symObjAddr: 0x42F0, symBinAddr: 0x1000067B0, symSize: 0x30 }
  - { offsetInCU: 0xDC14, offset: 0xDC14, size: 0x8, addend: 0x0, symName: __ZNKSt3__19allocatorI5ListaE8max_sizeB7v160006Ev, symObjAddr: 0x4320, symBinAddr: 0x1000067E0, symSize: 0x20 }
  - { offsetInCU: 0xDC39, offset: 0xDC39, size: 0x8, addend: 0x0, symName: __ZNKSt3__117__compressed_pairIP5ListaNS_9allocatorIS1_EEE6secondB7v160006Ev, symObjAddr: 0x4340, symBinAddr: 0x100006800, symSize: 0x20 }
  - { offsetInCU: 0xDC5E, offset: 0xDC5E, size: 0x8, addend: 0x0, symName: __ZNKSt3__122__compressed_pair_elemINS_9allocatorI5ListaEELi1ELb1EE5__getB7v160006Ev, symObjAddr: 0x4360, symBinAddr: 0x100006820, symSize: 0x10 }
  - { offsetInCU: 0xDC83, offset: 0xDC83, size: 0x8, addend: 0x0, symName: __ZNSt3__123__libcpp_numeric_limitsIlLb1EE3maxB7v160006Ev, symObjAddr: 0x4370, symBinAddr: 0x100006830, symSize: 0x10 }
  - { offsetInCU: 0xDC97, offset: 0xDC97, size: 0x8, addend: 0x0, symName: __ZNSt12length_errorC1B7v160006EPKc, symObjAddr: 0x43F0, symBinAddr: 0x1000068B0, symSize: 0x30 }
  - { offsetInCU: 0xDCCE, offset: 0xDCCE, size: 0x8, addend: 0x0, symName: __ZNSt12length_errorC2B7v160006EPKc, symObjAddr: 0x4420, symBinAddr: 0x1000068E0, symSize: 0x40 }
  - { offsetInCU: 0xDD05, offset: 0xDD05, size: 0x8, addend: 0x0, symName: __ZNSt3__114__split_bufferI5ListaRNS_9allocatorIS1_EEEC2EmmS4_, symObjAddr: 0x44B0, symBinAddr: 0x100006970, symSize: 0xD0 }
  - { offsetInCU: 0xDD77, offset: 0xDD77, size: 0x8, addend: 0x0, symName: __ZNSt3__117__compressed_pairIP5ListaRNS_9allocatorIS1_EEEC1B7v160006IDnS5_EEOT_OT0_, symObjAddr: 0x4580, symBinAddr: 0x100006A40, symSize: 0x30 }
  - { offsetInCU: 0xDDCE, offset: 0xDDCE, size: 0x8, addend: 0x0, symName: __ZNSt3__114__split_bufferI5ListaRNS_9allocatorIS1_EEE7__allocB7v160006Ev, symObjAddr: 0x45F0, symBinAddr: 0x100006AB0, symSize: 0x20 }
  - { offsetInCU: 0xDDF3, offset: 0xDDF3, size: 0x8, addend: 0x0, symName: __ZNSt3__114__split_bufferI5ListaRNS_9allocatorIS1_EEE9__end_capB7v160006Ev, symObjAddr: 0x4610, symBinAddr: 0x100006AD0, symSize: 0x20 }
  - { offsetInCU: 0xDE18, offset: 0xDE18, size: 0x8, addend: 0x0, symName: __ZNSt3__117__compressed_pairIP5ListaRNS_9allocatorIS1_EEEC2B7v160006IDnS5_EEOT_OT0_, symObjAddr: 0x4630, symBinAddr: 0x100006AF0, symSize: 0x40 }
  - { offsetInCU: 0xDE6F, offset: 0xDE6F, size: 0x8, addend: 0x0, symName: __ZNSt3__122__compressed_pair_elemIRNS_9allocatorI5ListaEELi1ELb0EEC2B7v160006IS4_vEEOT_, symObjAddr: 0x4670, symBinAddr: 0x100006B30, symSize: 0x20 }
  - { offsetInCU: 0xDEB0, offset: 0xDEB0, size: 0x8, addend: 0x0, symName: __ZNSt3__19allocatorI5ListaE8allocateB7v160006Em, symObjAddr: 0x4690, symBinAddr: 0x100006B50, symSize: 0x80 }
  - { offsetInCU: 0xDEE3, offset: 0xDEE3, size: 0x8, addend: 0x0, symName: __ZNSt3__117__compressed_pairIP5ListaRNS_9allocatorIS1_EEE6secondB7v160006Ev, symObjAddr: 0x4710, symBinAddr: 0x100006BD0, symSize: 0x20 }
  - { offsetInCU: 0xDF08, offset: 0xDF08, size: 0x8, addend: 0x0, symName: __ZNSt3__122__compressed_pair_elemIRNS_9allocatorI5ListaEELi1ELb0EE5__getB7v160006Ev, symObjAddr: 0x4730, symBinAddr: 0x100006BF0, symSize: 0x20 }
  - { offsetInCU: 0xDF2D, offset: 0xDF2D, size: 0x8, addend: 0x0, symName: __ZNSt3__117__compressed_pairIP5ListaRNS_9allocatorIS1_EEE5firstB7v160006Ev, symObjAddr: 0x4750, symBinAddr: 0x100006C10, symSize: 0x20 }
  - { offsetInCU: 0xDF52, offset: 0xDF52, size: 0x8, addend: 0x0, symName: __ZNSt3__116reverse_iteratorIP5ListaEC1B7v160006ES2_, symObjAddr: 0x4900, symBinAddr: 0x100006DC0, symSize: 0x30 }
  - { offsetInCU: 0xDF89, offset: 0xDF89, size: 0x8, addend: 0x0, symName: __ZNKSt3__116reverse_iteratorIP5ListaE4baseB7v160006Ev, symObjAddr: 0x4930, symBinAddr: 0x100006DF0, symSize: 0x20 }
  - { offsetInCU: 0xDFAE, offset: 0xDFAE, size: 0x8, addend: 0x0, symName: __ZNKSt3__16vectorI5ListaNS_9allocatorIS1_EEE14__annotate_newB7v160006Em, symObjAddr: 0x4990, symBinAddr: 0x100006E50, symSize: 0xB0 }
  - { offsetInCU: 0xDFE2, offset: 0xDFE2, size: 0x8, addend: 0x0, symName: __ZNSt3__129_AllocatorDestroyRangeReverseINS_9allocatorI5ListaEENS_16reverse_iteratorIPS2_EEEC1B7v160006ERS3_RS6_S9_, symObjAddr: 0x4AB0, symBinAddr: 0x100006F70, symSize: 0x40 }
  - { offsetInCU: 0xE038, offset: 0xE038, size: 0x8, addend: 0x0, symName: __ZNKSt3__116reverse_iteratorIP5ListaEdeB7v160006Ev, symObjAddr: 0x4B50, symBinAddr: 0x100007010, symSize: 0x30 }
  - { offsetInCU: 0xE06B, offset: 0xE06B, size: 0x8, addend: 0x0, symName: __ZNSt3__116reverse_iteratorIP5ListaEppB7v160006Ev, symObjAddr: 0x4B80, symBinAddr: 0x100007040, symSize: 0x20 }
  - { offsetInCU: 0xE090, offset: 0xE090, size: 0x8, addend: 0x0, symName: __ZNSt3__128__exception_guard_exceptionsINS_29_AllocatorDestroyRangeReverseINS_9allocatorI5ListaEENS_16reverse_iteratorIPS3_EEEEE10__completeB7v160006Ev, symObjAddr: 0x4BA0, symBinAddr: 0x100007060, symSize: 0x20 }
  - { offsetInCU: 0xE0B5, offset: 0xE0B5, size: 0x8, addend: 0x0, symName: __ZNSt3__128__exception_guard_exceptionsINS_29_AllocatorDestroyRangeReverseINS_9allocatorI5ListaEENS_16reverse_iteratorIPS3_EEEEED1B7v160006Ev, symObjAddr: 0x4BC0, symBinAddr: 0x100007080, symSize: 0x20 }
  - { offsetInCU: 0xE0DE, offset: 0xE0DE, size: 0x8, addend: 0x0, symName: __ZNSt3__128__exception_guard_exceptionsINS_29_AllocatorDestroyRangeReverseINS_9allocatorI5ListaEENS_16reverse_iteratorIPS3_EEEEEC1B7v160006ES8_, symObjAddr: 0x4BE0, symBinAddr: 0x1000070A0, symSize: 0x40 }
  - { offsetInCU: 0xE115, offset: 0xE115, size: 0x8, addend: 0x0, symName: __ZNSt3__128__exception_guard_exceptionsINS_29_AllocatorDestroyRangeReverseINS_9allocatorI5ListaEENS_16reverse_iteratorIPS3_EEEEEC2B7v160006ES8_, symObjAddr: 0x4C20, symBinAddr: 0x1000070E0, symSize: 0x30 }
  - { offsetInCU: 0xE14C, offset: 0xE14C, size: 0x8, addend: 0x0, symName: __ZNSt3__129_AllocatorDestroyRangeReverseINS_9allocatorI5ListaEENS_16reverse_iteratorIPS2_EEEC2B7v160006ERS3_RS6_S9_, symObjAddr: 0x4C50, symBinAddr: 0x100007110, symSize: 0x40 }
  - { offsetInCU: 0xE1A7, offset: 0xE1A7, size: 0x8, addend: 0x0, symName: __ZNSt3__119__to_address_helperINS_16reverse_iteratorIP5ListaEEvE6__callB7v160006ERKS4_, symObjAddr: 0x4C90, symBinAddr: 0x100007150, symSize: 0x50 }
  - { offsetInCU: 0xE1CA, offset: 0xE1CA, size: 0x8, addend: 0x0, symName: __ZNKSt3__116reverse_iteratorIP5ListaEptB7v160006Ev, symObjAddr: 0x4CE0, symBinAddr: 0x1000071A0, symSize: 0x20 }
  - { offsetInCU: 0xE1EF, offset: 0xE1EF, size: 0x8, addend: 0x0, symName: __ZNSt3__128__exception_guard_exceptionsINS_29_AllocatorDestroyRangeReverseINS_9allocatorI5ListaEENS_16reverse_iteratorIPS3_EEEEED2B7v160006Ev, symObjAddr: 0x4D00, symBinAddr: 0x1000071C0, symSize: 0x30 }
  - { offsetInCU: 0xE218, offset: 0xE218, size: 0x8, addend: 0x0, symName: __ZNKSt3__129_AllocatorDestroyRangeReverseINS_9allocatorI5ListaEENS_16reverse_iteratorIPS2_EEEclB7v160006Ev, symObjAddr: 0x4D30, symBinAddr: 0x1000071F0, symSize: 0xF0 }
  - { offsetInCU: 0xE23E, offset: 0xE23E, size: 0x8, addend: 0x0, symName: __ZNSt3__116reverse_iteratorINS0_IP5ListaEEEC1B7v160006ES3_, symObjAddr: 0x4E90, symBinAddr: 0x100007350, symSize: 0x30 }
  - { offsetInCU: 0xE275, offset: 0xE275, size: 0x8, addend: 0x0, symName: __ZNSt3__116reverse_iteratorINS0_IP5ListaEEEppB7v160006Ev, symObjAddr: 0x4F30, symBinAddr: 0x1000073F0, symSize: 0x30 }
  - { offsetInCU: 0xE29A, offset: 0xE29A, size: 0x8, addend: 0x0, symName: __ZNKSt3__116reverse_iteratorINS0_IP5ListaEEE4baseB7v160006Ev, symObjAddr: 0x4F60, symBinAddr: 0x100007420, symSize: 0x20 }
  - { offsetInCU: 0xE2C4, offset: 0xE2C4, size: 0x8, addend: 0x0, symName: __ZNSt3__119__to_address_helperINS_16reverse_iteratorINS1_IP5ListaEEEEvE6__callB7v160006ERKS5_, symObjAddr: 0x4F80, symBinAddr: 0x100007440, symSize: 0x50 }
  - { offsetInCU: 0xE2E7, offset: 0xE2E7, size: 0x8, addend: 0x0, symName: __ZNKSt3__116reverse_iteratorINS0_IP5ListaEEEptB7v160006Ev, symObjAddr: 0x4FD0, symBinAddr: 0x100007490, symSize: 0x20 }
  - { offsetInCU: 0xE30C, offset: 0xE30C, size: 0x8, addend: 0x0, symName: __ZNKSt3__116reverse_iteratorINS0_IP5ListaEEEdeB7v160006Ev, symObjAddr: 0x4FF0, symBinAddr: 0x1000074B0, symSize: 0x40 }
  - { offsetInCU: 0xE33F, offset: 0xE33F, size: 0x8, addend: 0x0, symName: __ZNSt3__116reverse_iteratorIP5ListaEmmB7v160006Ev, symObjAddr: 0x5030, symBinAddr: 0x1000074F0, symSize: 0x20 }
  - { offsetInCU: 0xE364, offset: 0xE364, size: 0x8, addend: 0x0, symName: __ZNSt3__116reverse_iteratorINS0_IP5ListaEEEC2B7v160006ES3_, symObjAddr: 0x5050, symBinAddr: 0x100007510, symSize: 0x40 }
  - { offsetInCU: 0xE39B, offset: 0xE39B, size: 0x8, addend: 0x0, symName: __ZNSt3__116reverse_iteratorIP5ListaEC2B7v160006ES2_, symObjAddr: 0x5090, symBinAddr: 0x100007550, symSize: 0x30 }
  - { offsetInCU: 0xE3D2, offset: 0xE3D2, size: 0x8, addend: 0x0, symName: __ZNSt3__114__split_bufferI5ListaRNS_9allocatorIS1_EEED2Ev, symObjAddr: 0x50C0, symBinAddr: 0x100007580, symSize: 0x60 }
  - { offsetInCU: 0xE3FD, offset: 0xE3FD, size: 0x8, addend: 0x0, symName: __ZNSt3__114__split_bufferI5ListaRNS_9allocatorIS1_EEE5clearB7v160006Ev, symObjAddr: 0x5120, symBinAddr: 0x1000075E0, symSize: 0x20 }
  - { offsetInCU: 0xE422, offset: 0xE422, size: 0x8, addend: 0x0, symName: __ZNKSt3__114__split_bufferI5ListaRNS_9allocatorIS1_EEE8capacityB7v160006Ev, symObjAddr: 0x5140, symBinAddr: 0x100007600, symSize: 0x40 }
  - { offsetInCU: 0xE447, offset: 0xE447, size: 0x8, addend: 0x0, symName: __ZNSt3__114__split_bufferI5ListaRNS_9allocatorIS1_EEE17__destruct_at_endB7v160006EPS1_, symObjAddr: 0x5180, symBinAddr: 0x100007640, symSize: 0x30 }
  - { offsetInCU: 0xE479, offset: 0xE479, size: 0x8, addend: 0x0, symName: __ZNSt3__114__split_bufferI5ListaRNS_9allocatorIS1_EEE17__destruct_at_endB7v160006EPS1_NS_17integral_constantIbLb0EEE, symObjAddr: 0x51B0, symBinAddr: 0x100007670, symSize: 0x90 }
  - { offsetInCU: 0xE4B9, offset: 0xE4B9, size: 0x8, addend: 0x0, symName: __ZNKSt3__114__split_bufferI5ListaRNS_9allocatorIS1_EEE9__end_capB7v160006Ev, symObjAddr: 0x5240, symBinAddr: 0x100007700, symSize: 0x20 }
  - { offsetInCU: 0xE4DE, offset: 0xE4DE, size: 0x8, addend: 0x0, symName: __ZNKSt3__117__compressed_pairIP5ListaRNS_9allocatorIS1_EEE5firstB7v160006Ev, symObjAddr: 0x5260, symBinAddr: 0x100007720, symSize: 0x1B }
...
